mads 2.0.9
Source: /Users/holgerjanz/Documents/ATARI-XL/Projects/RAMCART/BW-DOS/DOS/XBW131.ASM
     1 				; 
     2 				            icl 'XBW131.inc'
Source: /Users/holgerjanz/Documents/ATARI-XL/Projects/RAMCART/BW-DOS/DOS/XBW131.inc
     1 				;
     2 				; System equates
     3 				;
     4 = 0000			ICHID       equ $0000
     5 = 0001			ICDNO       equ $0001
     6 = 0002			ICCOM       equ $0002
     7 = 0003			ICSTA       equ $0003
     8 = 0004			ICBAL       equ $0004
     9 = 0005			ICBAH       equ $0005
    10 = 0006			ICPTL       equ $0006
    11 = 0007			ICPTH       equ $0007
    12 = 0008			ICBLL       equ $0008
    13 = 0009			ICBLH       equ $0009
    14 = 000A			ICAX1       equ $000A
    15 = 000B			ICAX2       equ $000B
    16 = 000C			ICAX3       equ $000C
    17 = 000D			ICAX4       equ $000D
    18 = 000E			ICAX5       equ $000E
    19 = 000F			ICAX6       equ $000F
    20 = 0080			ADLI        equ $0080
    21 = 0040			AVB         equ $0040
    22 = 0040			ALMS        equ $0040
    23 = 0020			AVSCR       equ $0020
    24 = 0010			AHSCR       equ $0010
    25 = 0001			AJMP        equ $0001
    26 = 0000			AEMPTY1     equ $0000
    27 = 0010			AEMPTY2     equ $0010
    28 = 0020			AEMPTY3     equ $0020
    29 = 0030			AEMPTY4     equ $0030
    30 = 0040			AEMPTY5     equ $0040
    31 = 0050			AEMPTY6     equ $0050
    32 = 0060			AEMPTY7     equ $0060
    33 = 0070			AEMPTY8     equ $0070
    34 = 0004			RAMLO       equ $0004
    35 = 0008			WARMST      equ $0008
    36 = 0009			BOOT        equ $0009
    37 = 000A			DOSVEC      equ $000A
    38 = 000C			DOSINI      equ $000C
    39 = 000E			APPMHI      equ $000E
    40 = 0011			BRKKEY      equ $0011
    41 = 0012			RTCLOK      equ $0012
    42 = 0018			DSKFMS      equ $0018
    43 = 001C			ABUFPT      equ $001C
    44 = 0020			ICHIDZ      equ $0020
    45 = 0021			ICDNOZ      equ $0021
    46 = 0022			ICCOMZ      equ $0022
    47 = 0023			ICSTAZ      equ $0023
    48 = 0024			ICBALZ      equ $0024
    49 = 0028			ICBLLZ      equ $0028
    50 = 0029			ICBLHZ      equ $0029
    51 = 002A			ICAX1Z      equ $002A
    52 = 002B			ICAX2Z      equ $002B
    53 = 002E			ICAX5Z      equ $002E
    54 = 0036			LTEMP       equ $0036
    55 = 0038			BUFRFL      equ $0038
    56 = 003E			FTYPE       equ $003E
    57 = 0040			FREQ        equ $0040
    58 = 0043			FMSZPG      equ $0043
    59 = 004A			ZCHAIN      equ $004A
    60 = 004C			DSTAT       equ $004C
    61 = 0054			ROWCRS      equ $0054
    62 = 005D			OLDCHR      equ $005D
    63 = 0064			ADRESS      equ $0064
    64 = 0068			SAVADR      equ $0068
    65 = 006A			RAMTOP      equ $006A
    66 = 006E			BITMSK      equ $006E
    67 = 0076			DELTAR      equ $0076
    68 = 0079			KEYDEF      equ $0079
    69 = 007B			SWPFLG      equ $007B
    70 = 007C			HOLDCH      equ $007C
    71 = 007E			COUNTR      equ $007E
    72 = 0244			COLDST      equ $0244
    73 = 02A0			DMASK       equ $02A0
    74 = 02E0			RUNAD       equ $02E0
    75 = 02E4			RAMSIZ      equ $02E4
    76 = 02E5			MEMTOP      equ $02E5
    77 = 0300			DDEVIC      equ $0300
    78 = 0301			DUNIT       equ $0301
    79 = 0302			DCOMND      equ $0302
    80 = 0303			DSTATS      equ $0303
    81 = 0308			DBYTLO      equ $0308
    82 = 0309			DBYTHI      equ $0309
    83 = 030A			DAUX1       equ $030A
    84 = 030B			DAUX2       equ $030B
    85 = 031A			HATABS      equ $031A
    86 = 0340			IOCB0       equ $0340
    87 = 0390			IOCB5       equ $0390
    88 = 03F8			BASICF      equ $03F8
    89 = D01D			GRACTL      equ $D01D
    90 = D301			PORTB       equ $D301
    91 = E456			CIOV        equ $E456
    92 = E471			SELFSV      equ $E471
    93 				;
    94 				; Code equates
    95 				;
    96 = 0000			L0000       equ $0000
    97 = 0086			L0086       equ $0086
    98 = 008A			L008A       equ $008A
    99 = 008C			L008C       equ $008C
   100 = 008F			L008F       equ $008F
   101 = 0093			L0093       equ $0093
   102 = 0094			L0094       equ $0094
   103 = 0097			L0097       equ $0097
   104 = 009A			L009A       equ $009A
   105 = 009D			L009D       equ $009D
   106 = 00A0			L00A0       equ $00A0
   107 = 00A2			L00A2       equ $00A2
   108 = 00A9			L00A9       equ $00A9
   109 = 00B9			L00B9       equ $00B9
   110 = 00BB			L00BB       equ $00BB
   111 = 00BD			L00BD       equ $00BD
   112 = 00C1			L00C1       equ $00C1
   113 = 00C8			L00C8       equ $00C8
   114 = 00C9			L00C9       equ $00C9
   115 = 00CA			L00CA       equ $00CA
   116 = 00CE			L00CE       equ $00CE
   117 = 00D0			L00D0       equ $00D0
   118 = 00D3			L00D3       equ $00D3
   119 = 00DC			L00DC       equ $00DC
   120 = 00F0			L00F0       equ $00F0
   121 = 00FC			L00FC       equ $00FC
   122 = 0100			L0100       equ $0100
   123 = 01A0			L01A0       equ $01A0
   124 = 01A9			L01A9       equ $01A9
   125 = 04A9			L04A9       equ $04A9
   126 = 05A0			L05A0       equ $05A0
   127 = 0EC9			L0EC9       equ $0EC9
   128 = 0ED7			L0ED7       equ $0ED7
   129 = 0ED8			L0ED8       equ $0ED8
   130 = 0F15			L0F15       equ $0F15
   131 = 0F38			L0F38       equ $0F38
   132 = 0F40			L0F40       equ $0F40
   133 = 0F43			L0F43       equ $0F43
   134 = 0F46			L0F46       equ $0F46
   135 = 0F49			L0F49       equ $0F49
   136 = 2008			L2008       equ $2008
   137 = 2020			L2020       equ $2020
   138 = 2060			L2060       equ $2060
   139 = 20A9			L20A9       equ $20A9
   140 = 20BE			L20BE       equ $20BE
   141 = 225D			L225D       equ $225D
   142 = 2281			L2281       equ $2281
   143 = 22BF			L22BF       equ $22BF
   144 = 22F0			L22F0       equ $22F0
   145 = 2313			L2313       equ $2313
   146 = 239A			L239A       equ $239A
   147 = 23B3			L23B3       equ $23B3
   148 = 24AD			L24AD       equ $24AD
   149 = 25AE			L25AE       equ $25AE
   150 = 26AC			L26AC       equ $26AC
   151 = 2754			L2754       equ $2754
   152 = 2809			L2809       equ $2809
   153 = 29A0			L29A0       equ $29A0
   154 = 2AA5			L2AA5       equ $2AA5
   155 = 2B1F			L2B1F       equ $2B1F
   156 = 2C68			L2C68       equ $2C68
   157 = 2DA0			L2DA0       equ $2DA0
   158 = 30A0			L30A0       equ $30A0
   159 = 30EE			L30EE       equ $30EE
   160 = 31A0			L31A0       equ $31A0
   161 = 3833			L3833       equ $3833
   162 = 39A9			L39A9       equ $39A9
   163 = 39AE			L39AE       equ $39AE
   164 = 4062			L4062       equ $4062
   165 = 4217			L4217       equ $4217
   166 = 429C			L429C       equ $429C
   167 = 4391			L4391       equ $4391
   168 = 43B1			L43B1       equ $43B1
   169 = 49A5			L49A5       equ $49A5
   170 = 4C09			L4C09       equ $4C09
   171 = 4C20			L4C20       equ $4C20
   172 = 4C5A			L4C5A       equ $4C5A
   173 = 4CF2			L4CF2       equ $4CF2
   174 = 4D00			L4D00       equ $4D00
   175 = 4D13			L4D13       equ $4D13
   176 = 4D1A			L4D1A       equ $4D1A
   177 = 4FAC			L4FAC       equ $4FAC
   178 = 53FA			L53FA       equ $53FA
   179 = 5B22			L5B22       equ $5B22
   180 = 5E09			L5E09       equ $5E09
   181 = 6006			L6006       equ $6006
   182 = 600E			L600E       equ $600E
   183 = 6C24			L6C24       equ $6C24
   184 = 6DEB			L6DEB       equ $6DEB
   185 = 7C94			L7C94       equ $7C94
   186 = 7E20			L7E20       equ $7E20
   187 = 7E38			L7E38       equ $7E38
   188 = 8021			L8021       equ $8021
   189 = 9018			L9018       equ $9018
   190 = 91E3			L91E3       equ $91E3
   191 = 9351			L9351       equ $9351
   192 = 93C1			L93C1       equ $93C1
   193 = 9AA3			L9AA3       equ $9AA3
   194 = 9B13			L9B13       equ $9B13
   195 = A00F			LA00F       equ $A00F
   196 = A0D5			LA0D5       equ $A0D5
   197 = A1A0			LA1A0       equ $A1A0
   198 = A209			LA209       equ $A209
   199 = A2BF			LA2BF       equ $A2BF
   200 = A2D7			LA2D7       equ $A2D7
   201 = A3A0			LA3A0       equ $A3A0
   202 = A4A0			LA4A0       equ $A4A0
   203 = A5BF			LA5BF       equ $A5BF
   204 = A7A0			LA7A0       equ $A7A0
   205 = A99A			LA99A       equ $A99A
   206 = A9A0			LA9A0       equ $A9A0
   207 = AAA0			LAAA0       equ $AAA0
   208 = AC9D			LAC9D       equ $AC9D
   209 = AD15			LAD15       equ $AD15
   210 = B00D			LB00D       equ $B00D
   211 = BD60			LBD60       equ $BD60
   212 = BF22			LBF22       equ $BF22
   213 = BFFA			LBFFA       equ $BFFA
   214 = BFFC			LBFFC       equ $BFFC
   215 = BFFD			LBFFD       equ $BFFD
   216 = C0A9			LC0A9       equ $C0A9
   217 = C90A			LC90A       equ $C90A
   218 = CD09			LCD09       equ $CD09
   219 = CE06			LCE06       equ $CE06
   220 = CE0C			LCE0C       equ $CE0C
   221 = D0C2			LD0C2       equ $D0C2
   222 = D0C5			LD0C5       equ $D0C5
   223 = D10E			LD10E       equ $D10E
   224 = E5AD			LE5AD       equ $E5AD
   225 = E610			LE610       equ $E610
   226 = E80D			LE80D       equ $E80D
   227 = EDE7			LEDE7       equ $EDE7
   228 = F5D5			LF5D5       equ $F5D5
   229 = FC95			LFC95       equ $FC95
   230 = FD20			LFD20       equ $FD20
   231 = FF00			LFF00       equ $FF00
   232 = FFA9			LFFA9       equ $FFA9
   233 = FFBD			LFFBD       equ $FFBD
   234 = FFE4			LFFE4       equ $FFE4
   235 = FFFF			LFFFF       equ $FFFF
     3
     4
     5 = 002C			op_BIT      equ $2C
     6
     7 				;;;;;;;;;;;;;;;;;;;;;;;;;;;;;;;;;;;;;;;;;;;;;
     8 				;
     9 				; Start of code
    10 				;
    11 				            org $0700
    12 				;
    13 FFFF> 0700-0E91> 53	            .byte $53     ;$700 the character "S" for SpartaDOS
    14 0701 32			L0701       .byte $32     ;$701 $32 for compatibility with SpartaDOS 3.2
    15 0702 00			            .byte $00
    16 0703 42 57		            .byte 'BW'    ;$703 "BW" when BW-DOS is installed
    17 0705 13			            .byte $13     ;$705 BW-DOS version 1.3x etc.
    18 0706 57 08		GETTDV      .word GETTD   ;$706 Adress of the "GETTD" routine
    19 0708 50 08		SETTDV      .word SETTD   ;$708 Adress of the "SETTD" routine
    20 070A 2A 07		            .word CONVDC  ;$70A Adress CONVDC
    21 070C 4C EE 0C		            jmp SIOV      ;$70C jmp LSIO 4C EE 0C
    22
    23 070F 0F			            .byte $0F
    24 0710 95 6E		            sta BITMSK,X           ; 95 6E
    25 0712 97 7F		            .byte $97,$7F
    26 0714 81 7E		            sta (COUNTR,X)         ; 81 7E
    27 0716 0A			            asl                    ; 0A
    28 0717 08			            php                    ; 08
    29 0718 0B 0C 0C 0C		            .byte $0B,$0C,$0C,$0C
    30 071C 0A			            asl                    ; 0A
    31
    32 071D 8D F3 0C		L071D       sta DECIN              ; 8D F3 0C
    33 0720 A9 00		            lda #$00               ; A9 00
    34 0722 8D F4 0C		            sta DECIN+1              ; 8D F4 0C
    35 0725 A9 00		            lda #$00               ; A9 00
    36 0727 8D F5 0C		            sta DECIN+2              ; 8D F5 0C
    37 				;;;;;;;;;;;;;;;;;;;;;;;;;;;;;;;;;;;;;;;;;;;;;
    38 				; convert digit to char
    39 072A A2 07		CONVDC      ldx #$07               ; A2 07
    40 072C 8E 4C 07		L072C       stx L074B+1            ; 8E 4C 07
    41 072F A2 18		            ldx #$18               ; A2 18
    42 0731 A9 00		            lda #$00               ; A9 00
    43 0733 0E F3 0C		L0733       asl DECIN              ; 0E F3 0C
    44 0736 2E F4 0C		            rol DECIN+1              ; 2E F4 0C
    45 0739 2E F5 0C		            rol DECIN+2              ; 2E F5 0C
    46 073C 2A			            rol                    ; 2A
    47 073D C9 0A		            cmp #$0A               ; C9 0A
    48 073F 90 05		            bcc L0746              ; 90 05
    49 0741 E9 0A		            sbc #$0A               ; E9 0A
    50 0743 EE F3 0C		            inc DECIN              ; EE F3 0C
    51 0746 CA			L0746       dex                    ; CA
    52 0747 D0 EA		L0747       bne L0733              ; D0 EA
    53 0749 09 30		            ora #$30               ; 09 30
    54 074B A2 00		L074B       ldx #$00               ; A2 00
    55 074D 9D E6 0C		L074D       sta DECOUT,X            ; 9D E6 0C
    56 0750 CA			            dex                    ; CA
    57 0751 30 4D		            bmi L07A0              ; 30 4D
    58 0753 AD F3 0C		            lda DECIN              ; AD F3 0C
    59 0756 0D F4 0C		            ora DECIN+1              ; 0D F4 0C
    60 0759 0D F5 0C		            ora DECIN+2              ; 0D F5 0C
    61 075C D0 CE		            bne L072C              ; D0 CE
    62 075E A9 20		            lda #$20               ; A9 20
    63 0760 D0 EB		            bne L074D              ; D0 EB
    64 0762 EE 03 0D		L0762       inc BUFOFF            ; EE 03 0D
    65 0765 2C			            .byte op_BIT
    66 				;;;;;;;;;;;;;;;;;;;;;;;;;;;;;;;;;;;;;;;;;;;;;
    67 				; crunch name
    68 0766 A9 20		CRNAME      lda #$20
    69 0768 AC 03 0D		L0768       ldy BUFOFF            ; AC 03 0D
    70 076B BE 38 0D		            ldx LBUF,Y          ; BE 38 0D
    71 076E E0 20		            cpx #$20               ; E0 20
    72 0770 F0 F0		            beq L0762              ; F0 F0
    73 0772 8D C8 07		            sta L07C7+1            ; 8D C8 07
    74 0775 A9 00		            lda #$00               ; A9 00
    75 0777 8D BF 07		            sta L07BD+2            ; 8D BF 07
    76 077A E0 9B		            cpx #$9B               ; E0 9B
    77 077C F0 12		            beq L0790              ; F0 12
    78 077E B9 39 0D		            lda LBUF+1,Y           ; B9 39 0D
    79 0781 C9 9B		            cmp #$9B               ; C9 9B
    80 0783 F0 0B		            beq L0790              ; F0 0B
    81 0785 C9 3A		            cmp #$3A               ; C9 3A
    82 0787 F0 18		            beq L07A1              ; F0 18
    83 0789 B9 3A 0D		L0789       lda LBUF+2,Y           ; B9 3A 0D
    84 078C C9 3A		            cmp #':'               ; C9 3A
    85 078E F0 05		L078E       beq L0795              ; F0 05
    86 0790 A0 41		L0790       ldy #$41               ; A0 41
    87 0792 20 BE 07		            jsr L07BD+1            ; 20 BE 07
    88 0795 AC 03 0D		L0795       ldy BUFOFF            ; AC 03 0D
    89 0798 20 BE 07		            jsr L07BD+1            ; 20 BE 07
    90 079B 8C 03 0D		            sty BUFOFF            ; 8C 03 0D
    91 079E E0 03		L079E       cpx #$03               ; E0 03
    92 07A0 60			L07A0       rts                    ; 60
    93 07A1 EE BF 07		L07A1       inc L07BD+2            ; EE BF 07
    94 07A4 20 95 07		            jsr L0795              ; 20 95 07
    95 07A7 AD 1B 0D		            lda COMFNAM+1              ; AD 1B 0D
    96 07AA 8D 1A 0D		            sta COMFNAM              ; 8D 1A 0D
    97 07AD A9 31		            lda #$31               ; A9 31
    98 07AF 8D 1B 0D		            sta COMFNAM+1              ; 8D 1B 0D
    99 07B2 D0 EA		            bne L079E              ; D0 EA
   100 07B4 9D 1A 0D		L07B4       sta COMFNAM,X            ; 9D 1A 0D
   101 07B7 E0 1B		            cpx #$1B               ; E0 1B
   102 07B9 B0 01		            bcs L07BC              ; B0 01
   103 07BB E8			            inx                    ; E8
   104 07BC C8			L07BC       iny                    ; C8
   105 07BD 2C A2 00		L07BD       bit.w L00A2            ; 2C A2 00
   106 07C0 B9 38 0D		            lda LBUF,Y          ; B9 38 0D
   107 07C3 C9 9B		            cmp #$9B               ; C9 9B
   108 07C5 F0 04		            beq L07CB              ; F0 04
   109 07C7 C9 20		L07C7       cmp #$20               ; C9 20
   110 07C9 D0 E9		            bne L07B4              ; D0 E9
   111 07CB A9 9B		L07CB       lda #$9B               ; A9 9B
   112 07CD 9D 1A 0D		            sta COMFNAM,X            ; 9D 1A 0D
   113 07D0 8E BF 07		            stx L07BD+2            ; 8E BF 07
   114 07D3 60			            rts                    ; 60
   115 07D4 9D 0F A0		            sta LA00F,X            ; 9D 0F A0
   116 07D7 0F A3 0F		            .byte $0F,$A3,$0F
   117 07DA A6 0F		            ldx APPMHI+1           ; A6 0F
   118 07DC A9 0F		            lda #$0F               ; A9 0F
   119 07DE 89 0F		            .byte $89,$0F
   120 				;;;;;;;;;;;;;;;;;;;;;;;;;;;;;;;;;;;;;;;;;;;;;
   121 07E0 D8			BW_DOS_ini  cld                    ; D8
   122 07E1 A5 47		            lda FMSZPG+4           ; A5 47
   123 07E3 D0 0D		            bne L07F2              ; D0 0D
   124 07E5 C6 47		            dec FMSZPG+4           ; C6 47
   125 07E7 2C 19 0D		            bit INCMND             ; 2C 19 0D
   126 07EA 10 06		            bpl L07F2              ; 10 06
   127 07EC 20 47 08		            jsr L0847              ; 20 47 08
   128 07EF 4C F9 0C		            jmp COMTAB             ; 4C F9 0C
   129 07F2 20 19 09		L07F2       jsr L0919              ; 20 19 09
   130 07F5 4D 17 42		            eor L4217              ; 4D 17 42
   131 07F8 E7 47		            .byte $E7,$47
   132 07FA F0 40		            beq L083C              ; F0 40
   133 07FC 0A			            asl                    ; 0A
   134 07FD CD F2 4C		            cmp L4CF2              ; CD F2 4C
   135 0800 F1 8A		            sbc (L008A),Y          ; F1 8A
   136 0802 9D 4C 0E		L0802       sta L0E4B+1,X          ; 9D 4C 0E
   137 0805 E0 97		            cpx #$97               ; E0 97
   138 0807 90 03		            bcc L080C              ; 90 03
   139 0809 DE 40 0E		            dec L0E3F+1,X          ; DE 40 0E
   140 080C E8			L080C       inx                    ; E8
   141 080D D0 F3		            bne L0802              ; D0 F3
   142 080F A8			            tay                    ; A8
   143 0810 2C A0 07		L0810       bit L07A0              ; 2C A0 07
   144 0813 C8			L0813       iny                    ; C8
   145 0814 98			            tya                    ; 98
   146 0815 9D 55 0E		            sta L0E55,X            ; 9D 55 0E
   147 0818 8A			            txa                    ; 8A
   148 0819 18			            clc                    ; 18
   149 081A 69 1A		L081A       adc #$1A               ; 69 1A
   150 081C AA			            tax                    ; AA
   151 081D C0 04		            cpy #$04               ; C0 04
   152 081F 90 F2		            bcc L0813              ; 90 F2
   153 0821 F0 EE		            beq L0810+1            ; F0 EE
   154 0823 A0 1E		            ldy #$1E               ; A0 1E
   155 0825 BE 1A 03		L0825       ldx HATABS,Y           ; BE 1A 03
   156 0828 D0 01		            bne L082B              ; D0 01
   157 082A 98			            tya                    ; 98
   158 082B E0 44		L082B       cpx #$44               ; E0 44
   159 082D F0 08		            beq L0837              ; F0 08
   160 082F 88			            dey                    ; 88
   161 0830 88			            dey                    ; 88
   162 0831 88			            dey                    ; 88
   163 0832 10 F1		            bpl L0825              ; 10 F1
   164 0834 A8			            tay                    ; A8
   165 0835 30 0C		            bmi L0843              ; 30 0C
   166 0837 A2 FD		L0837       ldx #$FD               ; A2 FD
   167 0839 BD 47 07		L0839       lda L0747,X            ; BD 47 07
   168 083C 99 1A 03		L083C       sta HATABS,Y           ; 99 1A 03
   169 083F C8			            iny                    ; C8
   170 0840 E8			            inx                    ; E8
   171 0841 D0 F6		            bne L0839              ; D0 F6
   172 0843 60			L0843       rts                    ; 60
   173 0844 44 D4 07		            .byte $44,$D4,$07
   174 0847 6C 0C 00		L0847       jmp (DOSINI)           ; 6C 0C 00
   175 084A 1C 0B 5F		            .byte $1C,$0B,$5F
   176 084D 16 0E		            asl APPMHI,X           ; 16 0E
   177 084F 06			            .byte $06
   178 				;;;;;;;;;;;;;;;;;;;;;;;;;;;;;;;;;;;;;;;;;;;;;
   179 				; $850 set time date
   180 0850 20 19 09		SETTD       jsr L0919              ; 20 19 09
   181 0853 CD 06 C8 4A		            .byte $CD,$06,$C8,$4A
   182 				;;;;;;;;;;;;;;;;;;;;;;;;;;;;;;;;;;;;;;;;;;;;;
   183 				; $857 get time data
   184 0857 20 19 09		GETTD       jsr L0919              ; 20 19 09
   185 085A C8			            iny                    ; C8
   186 085B 4A			            lsr                    ; 4A
   187 085C CD 06 60		            cmp L6006              ; CD 06 60
   188 085F AD 89 14		L085F       lda L1488+1            ; AD 89 14
   189 0862 2C A9 01		L0862       bit L01A9              ; 2C A9 01
   190 0865 A2 69		            ldx #$69               ; A2 69
   191 0867 D0 04		            bne L086D              ; D0 04
   192 0869 A9 01		L0869       lda #$01               ; A9 01
   193 086B A2 E9		L086B       ldx #$E9               ; A2 E9
   194 086D 8D 8B 08		L086D       sta L088A+1            ; 8D 8B 08
   195 0870 8E 8A 08		            stx L088A              ; 8E 8A 08
   196 0873 A2 FE		            ldx #$FE               ; A2 FE
   197 0875 20 C5 08		L0875       jsr L08C5              ; 20 C5 08
   198 0878 9D 8A 07		            sta L0789+1,X          ; 9D 8A 07
   199 087B 9D 8F 07		            sta L078E+1,X          ; 9D 8F 07
   200 087E E8			            inx                    ; E8
   201 087F D0 F4		            bne L0875              ; D0 F4
   202 0881 AD 8A 08		            lda L088A              ; AD 8A 08
   203 0884 0A			            asl                    ; 0A
   204 0885 CA			            dex                    ; CA
   205 0886 E8			L0886       inx                    ; E8
   206 0887 BD FF FF		            lda LFFFF,X            ; BD FF FF
   207 088A 69 00		L088A       adc #$00               ; 69 00
   208 088C 9D FF FF		            sta LFFFF,X            ; 9D FF FF
   209 088F 8E 8B 08		            stx L088A+1            ; 8E 8B 08
   210 0892 8A			            txa                    ; 8A
   211 0893 F0 F1		            beq L0886              ; F0 F1
   212 0895 60			            rts                    ; 60
   213 0896 D0 03		            bne L089B              ; D0 03
   214 0898 6C 36 0D		L0898       jmp (RUNLOC)            ; 6C 36 0D
   215 089B 20 19 09		L089B       jsr L0919              ; 20 19 09
   216 089E CE 00 4D		            dec L4D00              ; CE 00 4D
   217 08A1 36 BD		L08A1       rol L00BD,X            ; 36 BD
   218 08A3 1D 0D E8		            ora LE80D,X            ; 1D 0D E8
   219 08A6 38			            sec                    ; 38
   220 08A7 E9 30		            sbc #$30               ; E9 30
   221 08A9 C9 0A		            cmp #$0A               ; C9 0A
   222 08AB 90 06		            bcc L08B3              ; 90 06
   223 08AD E9 07		            sbc #$07               ; E9 07
   224 08AF C9 10		            cmp #$10               ; C9 10
   225 08B1 B0 E5		            bcs L0898              ; B0 E5
   226 08B3 0A			L08B3       asl                    ; 0A
   227 08B4 0A			            asl                    ; 0A
   228 08B5 0A			            asl                    ; 0A
   229 08B6 0A			            asl                    ; 0A
   230 08B7 A0 04		            ldy #$04               ; A0 04
   231 08B9 0A			L08B9       asl                    ; 0A
   232 08BA 2E 36 0D		            rol RUNLOC              ; 2E 36 0D
   233 08BD 2E 37 0D		            rol RUNLOC+1            ; 2E 37 0D
   234 08C0 88			            dey                    ; 88
   235 08C1 D0 F6		            bne L08B9              ; D0 F6
   236 08C3 F0 DD		            beq L08A1+1            ; F0 DD
   237 08C5 8E E6 08		L08C5       stx L08E5+1            ; 8E E6 08
   238 08C8 8C E8 08		            sty L08E7+1            ; 8C E8 08
   239 08CB BA			            tsx                    ; BA
   240 08CC E8			            inx                    ; E8
   241 08CD E8			            inx                    ; E8
   242 08CE E8			            inx                    ; E8
   243 08CF FE 00 01		            inc L0100,X            ; FE 00 01
   244 08D2 BD 00 01		            lda L0100,X            ; BD 00 01
   245 08D5 E8			            inx                    ; E8
   246 08D6 A8			            tay                    ; A8
   247 08D7 D0 03		            bne L08DC              ; D0 03
   248 08D9 FE 00 01		            inc L0100,X            ; FE 00 01
   249 08DC BD 00 01		L08DC       lda L0100,X            ; BD 00 01
   250 08DF 8D E4 08		            sta L08E2+2            ; 8D E4 08
   251 08E2 B9 00 FF		L08E2       lda LFF00,Y            ; B9 00 FF
   252 08E5 A2 00		L08E5       ldx #$00               ; A2 00
   253 08E7 A0 00		L08E7       ldy #$00               ; A0 00
   254 08E9 60			            rts                    ; 60
   255
   256 08EA 20 C5 08		L08EA       jsr L08C5              ; 20 C5 08
   257 08ED A2 03		            ldx #$03               ; A2 03
   258 08EF 2C A2 00		L08EF       bit.w L00A2            ; 2C A2 00
   259 08F2 48			            pha                    ; 48
   260 08F3 29 1F		            and #$1F               ; 29 1F
   261 08F5 9D 0F 09		            sta L090D+2,X          ; 9D 0F 09
   262 08F8 68			            pla                    ; 68
   263 08F9 4A			            lsr                    ; 4A
   264 08FA 4A			            lsr                    ; 4A
   265 08FB 4A			            lsr                    ; 4A
   266 08FC 4A			            lsr                    ; 4A
   267 08FD 4A			            lsr                    ; 4A
   268 08FE 8D 0B 09		            sta L090A+1            ; 8D 0B 09
   269 0901 20 C5 08		            jsr L08C5              ; 20 C5 08
   270 0904 9D 0E 09		            sta L090D+1,X          ; 9D 0E 09
   271 0907 8A			            txa                    ; 8A
   272 0908 F0 E0		            beq L08EA              ; F0 E0
   273 090A A2 00		L090A       ldx #$00               ; A2 00
   274 090C CA			L090C       dex                    ; CA
   275 090D BD FF FF		L090D       lda LFFFF,X            ; BD FF FF
   276 0910 9D FF FF		            sta LFFFF,X            ; 9D FF FF
   277 0913 8A			            txa                    ; 8A
   278 0914 D0 F6		            bne L090C              ; D0 F6
   279 0916 98			            tya                    ; 98
   280 0917 30 4F		            bmi L0968              ; 30 4F
   281 0919 20 76 0A		L0919       jsr L0A76              ; 20 76 0A
   282 091C 20 C5 08		L091C       jsr L08C5              ; 20 C5 08
   283 091F A8			            tay                    ; A8
   284 0920 0A			            asl                    ; 0A
   285 0921 0A			            asl                    ; 0A
   286 0922 08			            php                    ; 08
   287 0923 98			            tya                    ; 98
   288 0924 29 1F		            and #$1F               ; 29 1F
   289 0926 28			            plp                    ; 28
   290 0927 B0 C7		            bcs L08EF+1            ; B0 C7
   291 0929 30 1E		            bmi L0949              ; 30 1E
   292 092B 8D 3B 09		            sta L0939+2            ; 8D 3B 09
   293 092E 20 C5 08		            jsr L08C5              ; 20 C5 08
   294 0931 8D 3A 09		            sta L0939+1            ; 8D 3A 09
   295 0934 98			            tya                    ; 98
   296 0935 48			            pha                    ; 48
   297 0936 20 42 09		            jsr L0942              ; 20 42 09
   298 0939 20 48 09		L0939       jsr L0948              ; 20 48 09
   299 093C 20 76 0A		            jsr L0A76              ; 20 76 0A
   300 093F 68			            pla                    ; 68
   301 0940 10 DA		            bpl L091C              ; 10 DA
   302 0942 A9 00		L0942       lda #$00               ; A9 00
   303 0944 48			            pha                    ; 48
   304 0945 A9 00		L0945       lda #$00               ; A9 00
   305 0947 28			            plp                    ; 28
   306 0948 60			L0948       rts                    ; 60
   307 0949 8D 46 09		L0949       sta L0945+1            ; 8D 46 09
   308 094C 8C 65 09		            sty L0964+1            ; 8C 65 09
   309 094F 20 C5 08		            jsr L08C5              ; 20 C5 08
   310 0952 AA			            tax                    ; AA
   311 0953 20 C5 08		            jsr L08C5              ; 20 C5 08
   312 0956 A8			            tay                    ; A8
   313 0957 BD 8A 0D		L0957       lda L0D8A,X            ; BD 8A 0D
   314 095A 99 8A 0D		            sta L0D8A,Y            ; 99 8A 0D
   315 095D E8			            inx                    ; E8
   316 095E C8			            iny                    ; C8
   317 095F CE 46 09		            dec L0945+1            ; CE 46 09
   318 0962 D0 F3		            bne L0957              ; D0 F3
   319 0964 A9 00		L0964       lda #$00               ; A9 00
   320 0966 10 B1		            bpl L0919              ; 10 B1
   321 0968 A2 00		L0968       ldx #$00               ; A2 00
   322 096A 60			            rts                    ; 60
   323 096B 20 C5 08		L096B       jsr L08C5              ; 20 C5 08
   324 096E 2C A9 C0		L096E       bit LC0A9              ; 2C A9 C0
   325 0971 2C A9 04		L0971       bit L04A9              ; 2C A9 04
   326 0974 85 44		L0974       sta FMSZPG+1           ; 85 44
   327 0976 0A			            asl                    ; 0A
   328 0977 0A			            asl                    ; 0A
   329 0978 AA			            tax                    ; AA
   330 0979 A8			            tay                    ; A8
   331 097A B0 0D		            bcs L0989              ; B0 0D
   332 097C 20 C5 08		            jsr L08C5              ; 20 C5 08
   333 097F 4A			            lsr                    ; 4A
   334 0980 9D 4A 03		            sta IOCB0+ICAX1,X      ; 9D 4A 03
   335 0983 A9 00		            lda #$00               ; A9 00
   336 0985 6A			            ror                    ; 6A
   337 0986 9D 4B 03		            sta IOCB0+ICAX2,X      ; 9D 4B 03
   338 0989 A9 67		L0989       lda #$67               ; A9 67
   339 098B 85 43		            sta FMSZPG             ; 85 43
   340 098D 20 C5 08		L098D       jsr L08C5              ; 20 C5 08
   341 0990 99 42 03		            sta IOCB0+ICCOM,Y      ; 99 42 03
   342 0993 C8			L0993       iny                    ; C8
   343 0994 06 43		            asl FMSZPG             ; 06 43
   344 0996 90 FB		            bcc L0993              ; 90 FB
   345 0998 D0 F3		            bne L098D              ; D0 F3
   346 099A A5 44		            lda FMSZPG+1           ; A5 44
   347 099C 48			            pha                    ; 48
   348 099D A9 20		            lda #$20               ; A9 20
   349 099F 20 56 E4		            jsr CIOV               ; 20 56 E4
   350 09A2 68			            pla                    ; 68
   351 09A3 AA			            tax                    ; AA
   352 09A4 98			            tya                    ; 98
   353 09A5 10 19		            bpl L09C0              ; 10 19
   354 09A7 C9 88		            cmp #$88               ; C9 88
   355 09A9 F0 15		            beq L09C0              ; F0 15
   356 09AB 48			            pha                    ; 48
   357 09AC 8A			            txa                    ; 8A
   358 09AD 48			            pha                    ; 48
   359 09AE 29 1C		            and #$1C               ; 29 1C
   360 09B0 F0 0A		            beq L09BC              ; F0 0A
   361 09B2 09 C0		            ora #$C0               ; 09 C0
   362 09B4 20 74 09		            jsr L0974              ; 20 74 09
   363 09B7 0C			            .byte $0C
   364 09B8 00 00		L09B8       .byte $00,$00
   365 09BA 00 00		L09BA       .byte $00,$00
   366 09BC 68			L09BC       pla                    ; 68
   367 09BD 10 03		            bpl L09C2              ; 10 03
   368 09BF 68			            pla                    ; 68
   369 09C0 A8			L09C0       tay                    ; A8
   370 09C1 60			            rts                    ; 60
   371
   372 09C2 20 6F 09		L09C2       jsr L096E+1            ; 20 6F 09
   373 09C5 0B			            .byte $0B
   374 09C6 E1 0B		            sbc (DOSVEC+1,X)       ; E1 0B
   375 09C8 06 00		            asl L0000              ; 06 00
   376 09CA 68			            pla                    ; 68
   377 09CB 20 1D 07		            jsr L071D              ; 20 1D 07
   378 09CE 20 6F 09		            jsr L096E+1            ; 20 6F 09
   379 09D1 0B			            .byte $0B
   380 09D2 EA			            nop                    ; EA
   381 09D3 0C 04 00		            .byte $0C,$04,$00
   382 09D6 20 6F 09		            jsr L096E+1            ; 20 6F 09
   383 09D9 0B			            .byte $0B
   384 09DA E1 0B		            sbc (DOSVEC+1,X)       ; E1 0B
   385 09DC 01 00		            ora (L0000,X)          ; 01 00
   386 09DE 20 7C 0B		            jsr L0B7B+1            ; 20 7C 0B
   387 				;;;;;;;;;;;;;;;;;;;;;;;;;;;;;;;;;;;;;;;;;;;;;
   388 				; DOS entry
   389 09E1 D8			DOS_entry   cld                    ; D8
   390 09E2 20 28 0B		            jsr L0B28              ; 20 28 0B
   391 09E5 8E 12 0D		            stx TDOVER            ; 8E 12 0D
   392 09E8 8E 03 0D		            stx BUFOFF            ; 8E 03 0D
   393 09EB CA			            dex                    ; CA
   394 09EC 8E 19 0D		L09EC       stx INCMND             ; 8E 19 0D
   395 09EF 9A			            txs                    ; 9A
   396 09F0 20 6B 09		            jsr L096B              ; 20 6B 09
   397 09F3 C4 0C		            cpy DOSINI             ; C4 0C
   398 09F5 AC 0A C9		            ldy LC90A              ; AC 0A C9
   399 09F8 0A			            asl                    ; 0A
   400 09F9 20 6F 09		            jsr L096E+1            ; 20 6F 09
   401 09FC 0B			            .byte $0B
   402 09FD 78			            sei                    ; 78
   403 09FE 0D 04 00		            ora.w RAMLO            ; 0D 04 00
   404 0A01 20 6B 09		            jsr L096B              ; 20 6B 09
   405 0A04 40			            rti                    ; 40
   406 0A05 05 38		            ora BUFRFL             ; 05 38
   407 0A07 0D 40 00		            ora.w FREQ             ; 0D 40 00
   408 0A0A 20 AA 0B		            jsr L0BAA              ; 20 AA 0B
   409 0A0D 4C E1 09		            jmp DOS_entry          ; 4C E1 09
   410
   411 				;;;;;;;;;;;;;;;;;;;;;;;;;;;;;;;;;;;;;;;;;;;;;
   412 				; Command CAR
   413 0A10 AD FD BF		            lda LBFFD              ; AD FD BF
   414 0A13 EE FD BF		            inc LBFFD              ; EE FD BF
   415 0A16 CD FD BF		            cmp LBFFD              ; CD FD BF
   416 0A19 8D FD BF		            sta LBFFD              ; 8D FD BF
   417 0A1C D0 74		            bne L0A92              ; D0 74
   418 0A1E AE FC BF		            ldx LBFFC              ; AE FC BF
   419 0A21 D0 6F		            bne L0A92              ; D0 6F
   420 0A23 AD E4 0C		            lda DWARM              ; AD E4 0C
   421 0A26 85 08		            sta WARMST             ; 85 08
   422 0A28 8E 19 0D		            stx INCMND              ; 8E 19 0D
   423 0A2B CA			            dex                    ; CA
   424 0A2C 8E E4 0C		            stx DWARM              ; 8E E4 0C
   425 0A2F 6C FA BF		            jmp (LBFFA)            ; 6C FA BF
   426
   427 0A32 8D F8 03		L0A32       sta BASICF             ; 8D F8 03
   428 0A35 08			            php                    ; 08
   429 0A36 20 6F 09		            jsr L096E+1            ; 20 6F 09
   430 0A39 0C			            .byte $0C
   431 0A3A 10 08		L0A3A       bpl L0A44              ; 10 08
   432 0A3C 40			L0A3C       rti                    ; 40
   433 0A3D 50 AD		            bvc L09EC              ; 50 AD
   434 0A3F 01 D3		            ora (L00D3,X)          ; 01 D3
   435 0A41 6A			            ror                    ; 6A
   436 0A42 6A			            ror                    ; 6A
   437 0A43 28			            plp                    ; 28
   438 0A44 2A			L0A44       rol                    ; 2A
   439 0A45 2A			            rol                    ; 2A
   440 0A46 8D 01 D3		            sta PORTB              ; 8D 01 D3
   441 0A49 A2 CE		            ldx #$CE               ; A2 CE
   442 0A4B 8A			L0A4B       txa                    ; 8A
   443 0A4C 38			            sec                    ; 38
   444 0A4D E9 10		            sbc #$10               ; E9 10
   445 0A4F AA			            tax                    ; AA
   446 0A50 86 44		            stx FMSZPG+1           ; 86 44
   447 0A52 51 43		            eor (FMSZPG),Y         ; 51 43
   448 0A54 91 43		            sta (FMSZPG),Y         ; 91 43
   449 0A56 51 43		            eor (FMSZPG),Y         ; 51 43
   450 0A58 D0 F1		            bne L0A4B              ; D0 F1
   451 0A5A 8D E5 02		            sta MEMTOP             ; 8D E5 02
   452 0A5D E8			            inx                    ; E8
   453 0A5E E8			            inx                    ; E8
   454 0A5F 8E E4 02		            stx RAMSIZ             ; 8E E4 02
   455 0A62 8E E6 02		            stx MEMTOP+1           ; 8E E6 02
   456 0A65 86 6A		            stx RAMTOP             ; 86 6A
   457 0A67 20 6B 09		            jsr L096B              ; 20 6B 09
   458 0A6A 80			            .byte $80
   459 0A6B 18			            clc                    ; 18
   460 0A6C 03 E2 0B 00 00	            .byte $03,$E2,$0B,$00,$00
   461 0A71 A2 00		L0A71       ldx #$00               ; A2 00
   462 0A73 8E E4 0C		            stx DWARM              ; 8E E4 0C
   463 0A76 8D 46 09		L0A76       sta L0945+1            ; 8D 46 09
   464 0A79 08			            php                    ; 08
   465 0A7A 68			            pla                    ; 68
   466 0A7B 8D 43 09		            sta L0942+1            ; 8D 43 09
   467 0A7E 60			            rts                    ; 60
   468
   469 				;;;;;;;;;;;;;;;;;;;;;;;;;;;;;;;;;;;;;;;;;;;;;
   470 				; Command BASIC
   471 0A7F AD 1D 0D		            lda COMFNAM+3              ; AD 1D 0D
   472 0A82 C9 4F		            cmp #'O'               ; C9 4F
   473 0A84 D0 0C		            bne L0A92              ; D0 0C
   474 0A86 AD 1E 0D		            lda COMFNAM+4              ; AD 1E 0D
   475 0A89 C9 46		            cmp #'F'               ; C9 46
   476 0A8B F0 A5		            beq L0A32              ; F0 A5
   477 0A8D 18			            clc                    ; 18
   478 0A8E 49 4E		            eor #'N'               ; 49 4E
   479 0A90 F0 A0		            beq L0A32              ; F0 A0
   480 0A92 A9 9C		L0A92       lda #$9C               ; error 156 no cart ; A9 9C
   481 0A94 48			L0A94       pha                    ; 48
   482 0A95 4C C2 09		            jmp L09C2              ; 4C C2 09
   483
   484 0A98 00 00 00 00 00 00 + L0A98       .byte $00,$00,$00,$00,$00,$00,$00,$00,$00,$00,$00,$00
   485
   486 0AA4 6C B8 09		L0AA4       jmp (L09B8)            ; 6C B8 09
   487 0AA7 6C BA 09		L0AA7       jmp (L09BA)            ; 6C BA 09
   488 0AAA 20 7C 0B		L0AAA       jsr L0B7B+1            ; 20 7C 0B
   489 0AAD 8A			            txa                    ; 8A
   490 0AAE D0 F4		            bne L0AA4              ; D0 F4
   491 0AB0 2C F2 0C		            bit BATFLG              ; 2C F2 0C
   492 0AB3 10 08		            bpl L0ABD              ; 10 08
   493 0AB5 20 A4 0A		            jsr L0AA4              ; 20 A4 0A
   494 0AB8 C0 00		            cpy #$00               ; C0 00
   495 0ABA 10 17		            bpl L0AD3              ; 10 17
   496 0ABC 60			            rts                    ; 60
   497 0ABD A0 01		L0ABD       ldy #$01               ; A0 01
   498 0ABF A2 05		            ldx #$05               ; A2 05
   499 0AC1 20 C4 0C		            jsr L0CC4              ; 20 C4 0C
   500 0AC4 C0 00		            cpy #$00               ; C0 00
   501 0AC6 30 E2		            bmi L0AAA              ; 30 E2
   502 0AC8 A2 00		            ldx #$00               ; A2 00
   503 0ACA E0 00		            cpx #$00               ; E0 00
   504 0ACC D0 D9		            bne L0AA7              ; D0 D9
   505 0ACE 48			            pha                    ; 48
   506 0ACF 20 A7 0A		            jsr L0AA7              ; 20 A7 0A
   507 0AD2 68			            pla                    ; 68
   508 0AD3 2C F1 0C		L0AD3       bit ECHOFLG            ; 2C F1 0C
   509 0AD6 30 12		            bmi L0AEA              ; 30 12
   510 0AD8 48			            pha                    ; 48
   511 0AD9 A0 00		            ldy #$00               ; A0 00
   512 0ADB A2 07		            ldx #$07               ; A2 07
   513 0ADD 20 C4 0C		            jsr L0CC4              ; 20 C4 0C
   514 0AE0 C0 00		            cpy #$00               ; C0 00
   515 0AE2 10 03		            bpl L0AE7              ; 10 03
   516 0AE4 20 79 0B		            jsr L0B79              ; 20 79 0B
   517 0AE7 68			L0AE7       pla                    ; 68
   518 0AE8 A0 01		            ldy #$01               ; A0 01
   519 0AEA A2 00		L0AEA       ldx #$00               ; A2 00
   520 0AEC C0 00		            cpy #$00               ; C0 00
   521 0AEE 60			L0AEE       rts                    ; 60
   522 0AEF 20 19 09		L0AEF       jsr L0919              ; 20 19 09
   523 0AF2 4B			            .byte $4B
   524 0AF3 39 43 1C		L0AF3       and L1C42+1,Y          ; 39 43 1C
   525 0AF6 CA			            dex                    ; CA
   526 0AF7 6F 43		            .byte $6F,$43
   527 0AF9 46 F0		            lsr L00F0              ; 46 F0
   528 0AFB EC 20 7E		L0AFB       cpx L7E20              ; EC 20 7E
   529 0AFE 0B			            .byte $0B
   530 0AFF A0 00		L0AFF       ldy #$00               ; A0 00
   531 0B01 B9 3A 0A		            lda L0A3A,Y            ; B9 3A 0A
   532 0B04 8D 0D 0B		            sta L0B0D              ; 8D 0D 0B
   533 0B07 B9 E9 0B		            lda L0BE9,Y            ; B9 E9 0B
   534 0B0A 20 74 09		            jsr L0974              ; 20 74 09
   535 0B0D 08			L0B0D       php                    ; 08
   536 0B0E 03 1A		            .byte $03,$1A
   537 0B10 0D 1C 00		            ora.w ABUFPT           ; 0D 1C 00
   538 0B13 30 D9		            bmi L0AEE              ; 30 D9
   539 0B15 A9 00		            lda #$00               ; A9 00
   540 0B17 AC 00 0B		L0B17       ldy L0AFF+1            ; AC 00 0B
   541 0B1A BE 3C 0A		            ldx L0A3C,Y            ; BE 3C 0A
   542 0B1D 1D 40 03		            ora IOCB0,X            ; 1D 40 03
   543 0B20 99 F1 0C		            sta ECHOFLG,Y          ; 99 F1 0C
   544 0B23 A9 FF		            lda #$FF               ; A9 FF
   545 0B25 9D 40 03		            sta IOCB0,X            ; 9D 40 03
   546 0B28 AD 1C 03		L0B28       lda HATABS+2           ; AD 1C 03
   547 0B2B C9 0A		            cmp #$0A               ; C9 0A
   548 0B2D F0 2B		            beq L0B59+1            ; F0 2B
   549 0B2F 20 19 09		            jsr L0919              ; 20 19 09
   550 0B32 C3			            .byte $C3
   551 0B33 1B 4B		L0B33       .byte $1B,$4B
   552 0B35 39 A2 0B		            and L0BA2,Y            ; 39 A2 0B
   553 0B38 BD FF FF		L0B38       lda LFFFF,X            ; BD FF FF
   554 0B3B 9D 98 0A		            sta L0A98,X            ; 9D 98 0A
   555 0B3E CA			            dex                    ; CA
   556 0B3F 10 F7		            bpl L0B38              ; 10 F7
   557 0B41 20 19 09		            jsr L0919              ; 20 19 09
   558 0B44 4A			            lsr                    ; 4A
   559 0B45 9C 89		            .byte $9C,$89
   560 0B47 B8			            clv                    ; B8
   561 0B48 4A			            lsr                    ; 4A
   562 0B49 9E			            .byte $9E
   563 0B4A 4A			            lsr                    ; 4A
   564 0B4B 6F			            .byte $6F
   565 0B4C C9 F5		            cmp #$F5               ; C9 F5
   566 0B4E 8A			            txa                    ; 8A
   567 0B4F 9C			            .byte $9C
   568 0B50 20 63 08		            jsr L0862+1            ; 20 63 08
   569 0B53 B8			            clv                    ; B8
   570 0B54 09 20		            ora #$20               ; 09 20
   571 0B56 63			            .byte $63
   572 0B57 08			            php                    ; 08
   573 0B58 BA			            tsx                    ; BA
   574 0B59 09 AD		L0B59       ora #$AD               ; 09 AD
   575 0B5B F1 0C		            sbc (DOSINI),Y         ; F1 0C
   576 0B5D 2D F2 0C		            and BATFLG              ; 2D F2 0C
   577 0B60 30 8D		            bmi L0AEF              ; 30 8D
   578 0B62 20 19 09		            jsr L0919              ; 20 19 09
   579 0B65 4B 3C 43		            .byte $4B,$3C,$43
   580 0B68 1C			L0B68       .byte $1C
   581 0B69 CA			            dex                    ; CA
   582 0B6A 9E 43		            .byte $9E,$43
   583 0B6C 46 F0		            lsr L00F0              ; 46 F0
   584 0B6E 8B			            .byte $8B
   585 0B6F D0 2F		            bne L0B9F+1            ; D0 2F
   586 0B71 AD 1A 0D		            lda COMFNAM              ; AD 1A 0D
   587 0B74 CD 79 0D		            cmp L0D79              ; CD 79 0D
   588 0B77 D0 27		            bne L0B9F+1            ; D0 27
   589 0B79 A0 00		L0B79       ldy #$00               ; A0 00
   590 0B7B 2C A0 01		L0B7B       bit L01A0              ; 2C A0 01
   591 0B7E 98			            tya                    ; 98
   592 0B7F 29 01		            and #$01               ; 29 01
   593 0B81 A8			            tay                    ; A8
   594 0B82 8C 00 0B		            sty L0AFF+1            ; 8C 00 0B
   595 0B85 B9 F1 0C		            lda ECHOFLG,Y          ; B9 F1 0C
   596 0B88 30 9E		            bmi L0B28              ; 30 9E
   597 0B8A A2 03		            ldx #$03               ; A2 03
   598 0B8C 20 C4 0C		            jsr L0CC4              ; 20 C4 0C
   599 0B8F A9 FF		            lda #$FF               ; A9 FF
   600 0B91 30 84		            bmi L0B17              ; 30 84
   601 0B93 A9 20		L0B93       lda #$20               ; A9 20
   602 0B95 20 62 07		            jsr L0762              ; 20 62 07
   603 0B98 A0 45		            ldy #$45               ; A0 45
   604 0B9A 20 BE 07		            jsr L07BD+1            ; 20 BE 07
   605 0B9D A0 01		            ldy #$01               ; A0 01
   606 0B9F 2C A0 00		L0B9F       bit.w L00A0            ; 2C A0 00
   607 0BA2 20 FC 0A		L0BA2       jsr L0AFB+1            ; 20 FC 0A
   608 0BA5 10 1A		            bpl L0BC0+1            ; 10 1A
   609 0BA7 4C 94 0A		            jmp L0A94              ; 4C 94 0A
   610 0BAA AD 38 0D		L0BAA       lda LBUF            ; AD 38 0D
   611 0BAD C9 2D		            cmp #$2D               ; C9 2D
   612 0BAF F0 E2		            beq L0B93              ; F0 E2
   613 0BB1 C9 3B		            cmp #$3B               ; C9 3B
   614 0BB3 F0 0C		            beq L0BC0+1            ; F0 0C
   615 0BB5 20 66 07		            jsr CRNAME            ; 20 66 07
   616 0BB8 D0 08		            bne L0BC0+2            ; D0 08
   617 0BBA 20 19 09		            jsr L0919              ; 20 19 09
   618 0BBD CD 1A 4D		            cmp L4D1A              ; CD 1A 4D
   619 0BC0 79 60 20		L0BC0       adc L2060,Y            ; 79 60 20
   620
   621 				;;;;;;;;;;;;;;;;;;;;;;;;;;;;;;;;;;;;;;;;;;;;;
   622 				; begin statement table
   623 0BC3 33 0C		            .byte $33,$0C
   624 0BC5 52 45 4E 41 4D	            .byte 'RENAM'
   625 0BCA C5			            .byte $C5
   626 0BCB 45 52 41 53		            .byte 'ERAS'
   627 0BCF C5 9B		            .byte $C5,$9B
   628 0BD1 50 52 4F 54 45 43	            .byte 'PROTEC'
   629 0BD7 D4			            .byte $D4
   630 0BD8 55 4E 50 52 4F 54 +             .byte 'UNPROTEC'
   631 0BE0 D4 9B		            .byte $D4,$9B
   632 0BE2 45 72 72 6F 72	            .byte 'Error'
   633 0BE7 9B 9B		            .byte $9B,$9B
   634 0BE9 90 94		L0BE9       .byte $90,$94
   635 0BEB 4D			            .byte 'M'
   636 0BEC C4			            .byte $C4
   637 0BED 52			            .byte 'R'
   638 0BEE C4			L0BEE       .byte $C4
   639 0BEF 43			            .byte 'C'
   640 0BF0 C4			            .byte $C4
   641 0BF1 4C 4F 41		            .byte 'LOA'
   642 0BF4 C4			            .byte $C4
   643 0BF5 43 41		            .byte 'CA'
   644 0BF7 D2			            .byte $D2
   645 0BF8 52 55		            .byte 'RU'
   646 0BFA CE			            .byte $CE
   647 0BFB 50 52 49 4E		            .byte 'PRIN'
   648 0BFF D4			            .byte $D4
   649 0C00 54 59 50		            .byte 'TYP'
   650 0C03 C5			            .byte $C5
   651 0C04 44 49		            .byte 'DI'
   652 0C06 D2			            .byte $D2
   653 0C07 44 49 52		            .byte 'DIR'
   654 0C0A D3			            .byte $D3
   655 0C0B 42 41 53 49		            .byte 'BASI'
   656 0C0F C3			            .byte $C3
   657 0C10 00			            .byte $00
   658 				; CHANGE: add fill bytes
   659 0C11 00 00 00 00		            .byte $00,$00,$00,$00
   660 0C15 00 00 00 00 00	L0C15       .byte $00,$00,$00,$00,$00
   661 				; end statement table
   662 				;;;;;;;;;;;;;;;;;;;;;;;;;;;;;;;;;;;;;;;;;;;;;
   663
   664 0C1A 20 71 0A		            jsr L0A71              ; 20 71 0A
   665 0C1D A0 4A		            ldy #$4A               ; A0 4A
   666 0C1F 20 BE 07		            jsr L07BD+1            ; 20 BE 07
   667 0C22 18			            clc                    ; 18
   668 0C23 A9 04		L0C23       lda #$04               ; A9 04
   669 0C25 2A			            rol                    ; 2A
   670 0C26 8D 2C 0C		            sta L0C2C              ; 8D 2C 0C
   671 0C29 20 72 09		            jsr L0971+1            ; 20 72 09
   672 0C2C 08			L0C2C       php                    ; 08
   673 0C2D 28			            plp                    ; 28
   674 0C2E 1A			            .byte $1A
   675 0C2F 0D 1C 00		            ora.w ABUFPT           ; 0D 1C 00
   676 0C32 60			L0C32       rts                    ; 60
   677 0C33 A2 FF		            ldx #$FF               ; A2 FF
   678 0C35 86 43		            stx FMSZPG             ; 86 43
   679 0C37 A2 00		L0C37       ldx #$00               ; A2 00
   680 0C39 A0 00		            ldy #$00               ; A0 00
   681 0C3B E6 43		            inc FMSZPG             ; E6 43
   682 0C3D 20 C5 08		L0C3D       jsr L08C5              ; 20 C5 08
   683 0C40 48			            pha                    ; 48
   684 0C41 59 1D 0D		            eor COMFNAM+3,Y            ; 59 1D 0D
   685 0C44 0A			            asl                    ; 0A
   686 0C45 F0 01		            beq L0C48              ; F0 01
   687 0C47 CA			            dex                    ; CA
   688 0C48 C8			L0C48       iny                    ; C8
   689 0C49 68			            pla                    ; 68
   690 0C4A F0 E6		            beq L0C32              ; F0 E6
   691 0C4C 10 EF		            bpl L0C3D              ; 10 EF
   692 0C4E 8A			            txa                    ; 8A
   693 0C4F 30 E6		            bmi L0C37              ; 30 E6
   694 0C51 B9 1D 0D		            lda COMFNAM+3,Y            ; B9 1D 0D
   695 0C54 C9 9B		            cmp #$9B               ; C9 9B
   696 0C56 D0 DF		            bne L0C37              ; D0 DF
   697 0C58 20 68 07		            jsr L0768              ; 20 68 07
   698 0C5B 68			            pla                    ; 68
   699 0C5C 68			            pla                    ; 68
   700 0C5D A5 43		            lda FMSZPG             ; A5 43
   701 0C5F C9 0D		            cmp #$0D               ; C9 0D
   702 0C61 F0 C0		            beq L0C23              ; F0 C0
   703 0C63 B0 0F		            bcs L0C74              ; B0 0F
   704 0C65 69 20		            adc #$20               ; 69 20
   705 0C67 8D 6E 0C		            sta L0C6E              ; 8D 6E 0C
   706 0C6A 20 72 09		            jsr L0971+1            ; 20 72 09
   707 0C6D 00			            .byte $00
   708 0C6E 00 1A		L0C6E       .byte $00,$1A
   709 0C70 0D 1C 00		            ora.w ABUFPT           ; 0D 1C 00
   710 0C73 60			            rts                    ; 60
   711 0C74 A8			L0C74       tay                    ; A8
   712 0C75 B9 08 07		            lda SETTDV,Y           ; B9 08 07
   713 0C78 48			            pha                    ; 48
   714 0C79 B9 01 07		            lda L0701,Y            ; B9 01 07
   715 0C7C 48			            pha                    ; 48
   716 0C7D E0 03		            cpx #$03               ; E0 03
   717 0C7F 60			            rts                    ; 60
   718 0C80 A9 80		            lda #$80               ; A9 80
   719 0C82 49 12		            eor #$12               ; 49 12
   720 0C84 48			            pha                    ; 48
   721 0C85 BD 19 0D		            lda COMFNAM-1,X        ; BD 19 0D
   722 0C88 C9 38		            cmp #$38               ; C9 38
   723 0C8A F0 0B		            beq L0C97              ; F0 0B
   724 0C8C 29 F9		            and #$F9               ; 29 F9
   725 0C8E C9 38		            cmp #$38               ; C9 38
   726 0C90 D0 05		            bne L0C97              ; D0 05
   727 0C92 A0 4F		            ldy #$4F               ; A0 4F
   728 0C94 20 BE 07		L0C94       jsr L07BD+1            ; 20 BE 07
   729 0C97 68			L0C97       pla                    ; 68
   730 0C98 49 9F		            eor #$9F               ; 49 9F
   731 0C9A 8D A0 0C		            sta L0CA0              ; 8D A0 0C
   732 0C9D 20 72 09		            jsr L0971+1            ; 20 72 09
   733 0CA0 08			L0CA0       php                    ; 08
   734 0CA1 03 1A		            .byte $03,$1A
   735 0CA3 0D 1C 00		            ora.w ABUFPT           ; 0D 1C 00
   736 0CA6 20 6B 09		L0CA6       jsr L096B              ; 20 6B 09
   737 0CA9 44 07		L0CA9       .byte $44,$07
   738 0CAB 38			            sec                    ; 38
   739 0CAC 0D 40 00		            ora.w FREQ             ; 0D 40 00
   740 0CAF 08			            php                    ; 08
   741 0CB0 20 19 09		            jsr L0919              ; 20 19 09
   742 0CB3 C3			            .byte $C3
   743 0CB4 58			            cli                    ; 58
   744 0CB5 4C BE 20		            jmp L20BE              ; 4C BE 20
   745 0CB8 6B			            .byte $6B
   746 0CB9 09 40		            ora #$40               ; 09 40
   747 0CBB 0B			            .byte $0B
   748 0CBC 38			            sec                    ; 38
   749 0CBD 0D 40 00		            ora.w FREQ             ; 0D 40 00
   750 0CC0 28			            plp                    ; 28
   751 0CC1 10 E3		            bpl L0CA6              ; 10 E3
   752 0CC3 60			            rts                    ; 60
   753 0CC4 85 45		L0CC4       sta FMSZPG+2           ; 85 45
   754 0CC6 8A			            txa                    ; 8A
   755 0CC7 48			            pha                    ; 48
   756 0CC8 BE F1 0C		            ldx ECHOFLG,Y          ; BE F1 0C
   757 0CCB BD 1B 03		            lda HATABS+1,X         ; BD 1B 03
   758 0CCE 85 43		            sta FMSZPG             ; 85 43
   759 0CD0 BD 1C 03		            lda HATABS+2,X         ; BD 1C 03
   760 0CD3 85 44		            sta FMSZPG+1           ; 85 44
   761 0CD5 BE 3C 0A		            ldx L0A3C,Y            ; BE 3C 0A
   762 0CD8 68			            pla                    ; 68
   763 0CD9 A8			            tay                    ; A8
   764 0CDA B1 43		            lda (FMSZPG),Y         ; B1 43
   765 0CDC 48			            pha                    ; 48
   766 0CDD 88			            dey                    ; 88
   767 0CDE B1 43		            lda (FMSZPG),Y         ; B1 43
   768 0CE0 48			            pha                    ; 48
   769 0CE1 A5 45		            lda FMSZPG+2           ; A5 45
   770 0CE3 60			            rts                    ; 60
   771
   772 				;;;;;;;;;;;;;;;;;;;;;;;;;;;;;;;;;;;;;;;;;;;;;
   773 				; Start of COMTAB
   774
   775 0CE4 FF			DWARM       .byte $FF              ; COMTAB-21: DWARM $0CE4
   776 0CE5 80			            .byte $80
   777 0CE6 20 20 20		DECOUT      .byte $20,$20,$20      ;  COMTAB-19: DECOUT
   778 0CE9 20 20 20		            .byte $20,$20,$20      ;
   779 0CEC 20 20		            .byte $20,$20          ;
   780 0CEE 4C			SIOV        .byte $4c              ; jmp SIO
   781 0CEF 59 E4		LSIO        .word $e459            ; COMTAB-10: LSIO
   782 0CF1 FF			ECHOFLG     .byte $ff              ; COMTAB-8: ECHOFLG
   783 0CF2 FF			BATFLG      .byte $FF              ; COMTAB-7: BATFLG
   784 0CF3 00 00 00		DECIN       .byte $00,$00,$00      ; COMTAB-6: DECIN
   785 0CF6 00			            .byte $00
   786 0CF7 50			WRTCMD      .byte 'P'              ; COMTAB-2: WRTCMD W=verify P=no verify
   787 0CF8 FF			            .byte $FF              ; COMTAB-1: WARMST 00 in CP, $FF trap errors
   788 				; DOSVEC => $0cf9
   789 0CF9 4C E1 09		COMTAB      jmp DOS_entry          ; COMTAB: Jump to DOS CP
   790 0CFC 4C 66 07		            jmp CRNAME             ; COMTAB+3: CRNAME
   791 0CFF FC 0A		            .word $0AFC            ; COMTAB+6: DIVIO
   792 0D01 7E 0B		            .word $0B7E            ; COMTAB+8: XDIVIO
   793 0D03 00			BUFOFF      .byte $00              ; COMTAB+10: BUFOFF
   794 0D04 00 07		            .byte $00,$07
   795 0D06 1C 0B 5F		            .byte $1C,$0B,$5F      ; COMTAB+13: DATER 28.11.95
   796 0D09 16 0E 06		            .byte $16,$0E,$06      ; COMTAB+16 TIMER 22:14:06
   797 0D0C 1C 0B 5F		            .byte $1C,$0B,$5F      ; COMTAB+19 ODATER
   798 0D0F 16 0E 06		            .byte $16,$0E,$06      ; COMTAB+22 OTIMER
   799 0D12 00			TDOVER      .byte $00              ; COMTAB+25 TDOVER
   800 0D13 5E 08		            .word $085E            ; COMTAB+26 TRUN
   801 0D15 11 17		            .word $1711            ; ??? buffer adr ???
   802 0D17 E4 1E		SMEMLO      .word BW_DOS_end_addr  ; COMTAB+30 SMEMLO start up MEMLO
   803 0D19 00			INCMND      .byte $00              ; COMTAB+32 INCMND Reset $00-CP $FF-Cart
   804 0D1A 44 31 3A 53 54 41 + COMFNAM     .byte 'D1:STARTUP.BAT' ; COMTAB+33 COMFNAM 28 Bytes
   805 0D28 9B			            .byte $9B
   806 0D29 20 20 20		            .byte $20,$20,$20
   807 0D2C 20 20 20		            .byte $20,$20,$20
   808 0D2F 20 20 20		            .byte $20,$20,$20
   809 0D32 20 20 20 20		            .byte $20,$20,$20,$20
   810 0D36 5E 08		RUNLOC      .word $085E             ; COMTAB+61 RUNLOC address for RUN
   811 				                                    ; COMTAB+63  LBUF comman line buffer 64 Bytes
   812 				; start code to check for STARTUP.BAT
   813 				; LBUF = $0d38-$0d78
   814 0D38 20 F2 07		LBUF        jsr L07F2              ; 20 F2 07
   815 0D3B A9 FF		            lda #$FF               ; A9 FF
   816 0D3D 85 47		            sta FMSZPG+4           ; 85 47
   817 0D3F A0 01		            ldy #$01               ; A0 01
   818 0D41 20 FC 0A		L0D41       jsr L0AFB+1            ; 20 FC 0A
   819 0D44 20 71 0A		            jsr L0A71              ; 20 71 0A
   820 0D47 8E 44 02		L0D47       stx COLDST             ; 8E 44 02
   821 0D4A A5 09		            lda BOOT               ; A5 09
   822 0D4C 09 01		L0D4C       ora #$01               ; 09 01
   823 0D4E 85 09		            sta BOOT               ; 85 09
   824 0D50 4C E1 09		            jmp DOS_entry              ; 4C E1 09
   825 0D53 18			L0D53       clc                    ; 18
   826 0D54 60			            rts                    ; 60
   827 0D55 20 20 20 20 20 20 +             .byte '                          '
   828 0D6F 20 20 20 20 20 20 + L0D6F       .byte '         '
   829 0D78 9B			            .byte $9B
   830 				; end of LBUF and COMTAB
   831 0D79 44 31 3A		L0D79       .byte 'D1:'
   832 0D7C 9B			            .byte $9B
   833 0D7D 2E 42 41 54		            .byte '.BAT'
   834 0D81 9B			            .byte $9B
   835 0D82 2E 43 4F 4D		            .byte '.COM'
   836 0D86 9B			            .byte $9B
   837 0D87 2A 2E 2A		            .byte '*.*'
   838 0D8A 9B			L0D8A       .byte $9B
   839 0D8B 56 6F 6C 75 6D 65 +             .byte 'Volume:          '
   840 0D9C 20			L0D9C       .byte ' '
   841 0D9D 20 20 20 20 20 20 + L0D9D       .byte '                    '
   842 0DB1 20			L0DB1       .byte ' '
   843 0DB2 20 20 20 20 20 20 + L0DB2       .byte '                   '
   844 0DC5 20			L0DC5       .byte ' '
   845 0DC6 9B			            .byte $9B
   846 0DC7 44 69 72 65 63 74 +             .byte 'Directory:'
   847 0DD1 C4 C9 D2		            .byte $C4,$C9,$D2
   848 0DD4 3C 44 49 52 3E 46 +             .byte '<DIR>FREE SECTORS'
   849 0DE5 00			L0DE5       .byte $00
   850 0DE6 00 00 00		L0DE6       .byte $00,$00,$00
   851 0DE9 80			L0DE9       .byte $80
   852 0DEA 20 20 20 20		            .byte '    '
   853 0DEE 20			L0DEE       .byte ' '
   854 0DEF 20			L0DEF       .byte ' '
   855 0DF0 20 20		L0DF0       .byte '  '
   856 0DF2 FF FF		            .byte $FF,$FF
   857 0DF4 44 4F 53 20 20 20 +             .byte 'DOS       '
   858 0DFE 20 21		L0DFE       .byte ' !'
   859 0E00 00 00 00 02 00 1C +             .byte $00,$00,$00,$02,$00,$1C,$17,$00
   860 0E08 01 00		            .byte $01,$00          ; 01 00
   861 0E0A 2D			L0E0A       .byte $2d
   862
   863
   864 				;;;;;;;;;;;;;;;;;;;;;;;;;;;;;;;;;;;;;;;;;;;;;
   865 				; start of initialization after loading
   866 				;
   867 0E0B A2 1A		start       ldx #$1A               ; 2D A2 1A
   868 				; search for E:
   869 0E0D BD 00 03		_srch_e     lda DDEVIC,X           ; BD 00 03
   870 0E10 C9 45		            cmp #'E'               ; C9 45
   871 0E12 F0 0A		            beq L0E1E              ; F0 0A
   872 0E14 E8			            inx                    ; E8
   873 0E15 E8			            inx                    ; E8
   874 0E16 E8			L0E16       inx                    ; E8
   875 0E17 E0 3B		            cpx #$3B               ; E0 3B
   876 0E19 90 F2		            bcc _srch_e              ; 90 F2
   877 				; E: not found => Self Test
   878 0E1B 4C 71 E4		            jmp SELFSV             ; 4C 71 E4
   879
   880 0E1E E8			L0E1E       inx                    ; E8
   881 0E1F 8E 33 0B		L0E1F       stx L0B33              ; 8E 33 0B
   882 0E22 8E 68 0B		            stx L0B68              ; 8E 68 0B
   883 0E25 8E F5 0A		L0E25       stx L0AF3+2            ; 8E F5 0A
   884 0E28 E8			            inx                    ; E8
   885 0E29 8E 29 0B		            stx L0B28+1            ; 8E 29 0B
   886 				; move BW_DOS_iniv to DOSINI
   887 0E2C 20 19 09		            jsr L0919              ; 20 19 09
   888 0E2F CE 62 40 0C		            .byte $CE,$62,$40,$0C
   889 				; clear memory form end of BW-DOS($1EE4) to MEMTOP
   890 				; NEW INSERT BEGIN
   891 0E33 A0 00		            ldy #$00  ; skip clear mem
   892 0E35 4C 47 0E		            jmp L0E47 ; jump to print BW-DOS text
   893 				;            txa                    ; 8A
   894 				;            ldy #<BW_DOS_end_addr  ; A0 E4
   895 				;            ldx #>BW_DOS_end_addr  ; A2 1E
   896 				; NEW INSERT END
   897 0E38 8E 3D 0E		L0E38       stx L0E3B+2            ; 8E 3D 0E
   898 0E3B 99 00 FF		L0E3B       sta LFF00,Y            ; 99 00 FF
   899 0E3E C8			L0E3E       iny                    ; C8
   900 0E3F D0 FA		L0E3F       bne L0E3B              ; D0 FA
   901 0E41 E8			L0E41       inx                    ; E8
   902 0E42 EC E6 02		L0E42       cpx MEMTOP+1           ; EC E6 02
   903 0E45 90 F1		L0E45       bcc L0E38              ; 90 F1
   904 				; print BW-DOS text
   905 0E47 98			L0E47       tya                    ; 98
   906 0E48 B9 64 0E		L0E48       lda BW_DOS_text,Y      ; B9 64 0E
   907 0E4B F0 12		L0E4B       beq L0E5F              ; F0 12
   908 0E4D 8D C9 0E		L0E4D       sta L0EC9              ; 8D C9 0E
   909 0E50 98			            tya                    ; 98
   910 0E51 48			L0E51       pha                    ; 48
   911
   912 0E52 20 6F 09		L0E52       jsr L096E+1            ; 20 6F 09
   913 0E55 0B C9 0E		L0E55       .byte $0B,$C9,$0E
   914 0E58 01 00		L0E58       .byte $01,$00
   915
   916 0E5A 68			            pla                    ; 68
   917 0E5B A8			            tay                    ; A8
   918 0E5C C8			            iny                    ; C8
   919 0E5D D0 E8		L0E5D       bne L0E47              ; D0 E8
   920 0E5F 4C 8B 0E		L0E5F       jmp ext_init            ; 4C 38 0D
   921
   922 0E62 E0 07		BW_DOS_iniv .word BW_DOS_ini       ; E0 07
   923 0E64 9B			BW_DOS_text .byte $9B
   924 0E65 42 57 2D 44 4F 53	            .byte 'BW-DOS'
   925 0E6B 20 31 2E 33 31 20 + L0E6B       .byte ' 1.31 BEWESOFT, HJX 24-04-2021'
   926 0E89 9B 00		            .byte $9B,$00
   927 0E8B A9 00		ext_init    lda #$00
   928 0E8D 85 52		            sta $52    ; left margin 0
   929 0E8F 4C 38 0D		            jmp LBUF
   930
   931
   932 				;;;;;;;;;;;;;;;;;;;;;;;;;;;;;;;;;;;;;;;;;;;;;
   933 				;
   934 0E92			            org $0F4C
   935 				;
   936 0F4C-1710> AE 3D 0E	L0F4C       ldx L0E3B+2            ; AE 3D 0E
   937 0F4F AD 3E 0E		            lda L0E3E              ; AD 3E 0E
   938 0F52 20 E9 1B		            jsr L1BE9              ; 20 E9 1B
   939 0F55 AC 3F 0E		            ldy L0E3F              ; AC 3F 0E
   940 0F58 60			L0F58       rts                    ; 60
   941 0F59 B9 58 0F		L0F59       lda L0F58,Y            ; B9 58 0F
   942 0F5C 29 1F		            and #$1F               ; 29 1F
   943 0F5E 48			            pha                    ; 48
   944 0F5F B9 46 0F		            lda L0F46,Y            ; B9 46 0F
   945 0F62 48			            pha                    ; 48
   946 0F63 A6 46		            ldx FMSZPG+3           ; A6 46
   947 0F65 60			            rts                    ; 60
   948 0F66 D0 D0		            bne L0F38              ; D0 D0
   949 0F68 96 D0		            stx L00D0,Y            ; 96 D0
   950 0F6A D0 31		            bne L0F9D              ; D0 31
   951 0F6C E8			            inx                    ; E8
   952 0F6D EB			            .byte $EB
   953 0F6E 21 8F		            and (L008F,X)          ; 21 8F
   954 0F70 89			            .byte $89
   955 0F71 19 94 7C		            ora L7C94,Y            ; 19 94 7C
   956 0F74 E8			            inx                    ; E8
   957 0F75 53			            .byte $53
   958 0F76 8C 95 FC		            sty LFC95              ; 8C 95 FC
   959 0F79 FC			            .byte $FC
   960 0F7A 95 FC		            sta L00FC,X            ; 95 FC
   961 0F7C FC 34		            .byte $FC,$34
   962 0F7E 36 36		            rol LTEMP,X            ; 36 36
   963 0F80 3E D5 F5		            rol LF5D5,X            ; 3E D5 F5
   964 0F83 FD FA 53		            sbc L53FA,X            ; FD FA 53
   965 0F86 12			            .byte $12
   966 0F87 F1 12		            sbc (RTCLOK),Y         ; F1 12
   967 0F89 12			            .byte $12
   968 0F8A A4 22		            ldy ICCOMZ             ; A4 22
   969 0F8C 8D DC 10		            sta L10DB+1            ; 8D DC 10
   970 0F8F 98			            tya                    ; 98
   971 0F90 29 F0		            and #$F0               ; 29 F0
   972 0F92 C9 20		            cmp #$20               ; C9 20
   973 0F94 D0 05		            bne L0F9B              ; D0 05
   974 0F96 39 58 0F		            and L0F58,Y            ; 39 58 0F
   975 0F99 D0 14		            bne L0FAF              ; D0 14
   976 0F9B A0 A8		L0F9B       ldy #$A8               ; A0 A8
   977 0F9D 60			L0F9D       rts                    ; 60
   978 0F9E A0 22		            ldy #$22               ; A0 22
   979 0FA0 2C A0 2D		            bit L2DA0              ; 2C A0 2D
   980 0FA3 2C A0 30		            bit L30A0              ; 2C A0 30
   981 0FA6 2C A0 31		            bit L31A0              ; 2C A0 31
   982 0FA9 2C A0 29		            bit L29A0              ; 2C A0 29
   983 0FAC 8D DC 10		L0FAC       sta L10DB+1            ; 8D DC 10
   984 0FAF D8			L0FAF       cld                    ; D8
   985 0FB0 86 46		            stx FMSZPG+3           ; 86 46
   986 0FB2 A9 01		            lda #$01               ; A9 01
   987 0FB4 8D BB 10		            sta L10BA+1            ; 8D BB 10
   988 0FB7 C0 28		            cpy #$28               ; C0 28
   989 0FB9 D0 09		            bne L0FC4              ; D0 09
   990 0FBB 20 59 0F		            jsr L0F59              ; 20 59 0F
   991 0FBE 2C A0 A1		L0FBE       bit LA1A0              ; 2C A0 A1
   992 0FC1 4C DB 10		L0FC1       jmp L10DB              ; 4C DB 10
   993 0FC4 BA			L0FC4       tsx                    ; BA
   994 0FC5 8E C3 10		            stx L10C2+1            ; 8E C3 10
   995 0FC8 E8			            inx                    ; E8
   996 0FC9 E8			            inx                    ; E8
   997 0FCA BD 00 01		            lda L0100,X            ; BD 00 01
   998 0FCD 8D A3 12		            sta L12A2+1            ; 8D A3 12
   999 0FD0 8C 9C 10		            sty L109B+1            ; 8C 9C 10
  1000 0FD3 B9 58 0F		            lda L0F58,Y            ; B9 58 0F
  1001 0FD6 29 C0		            and #$C0               ; 29 C0
  1002 0FD8 8D EC 0F		            sta L0FEB+1            ; 8D EC 0F
  1003 0FDB A6 46		            ldx FMSZPG+3           ; A6 46
  1004 0FDD 20 21 11		            jsr L1121              ; 20 21 11
  1005 0FE0 D0 09		            bne L0FEB              ; D0 09
  1006 0FE2 2C EC 0F		            bit L0FEB+1            ; 2C EC 0F
  1007 0FE5 10 19		            bpl L1000              ; 10 19
  1008 0FE7 A0 81		            ldy #$81               ; A0 81
  1009 0FE9 D0 D6		            bne L0FC1              ; D0 D6
  1010 0FEB A9 00		L0FEB       lda #$00               ; A9 00
  1011 0FED 10 34		            bpl L1023              ; 10 34
  1012 0FEF A2 FF		            ldx #$FF               ; A2 FF
  1013 0FF1 20 21 11		            jsr L1121              ; 20 21 11
  1014 0FF4 D0 C9		            bne L0FBE+1            ; D0 C9
  1015 0FF6 A5 46		            lda FMSZPG+3           ; A5 46
  1016 0FF8 99 D7 0E		            sta L0ED7,Y            ; 99 D7 0E
  1017 0FFB A5 21		            lda ICDNOZ             ; A5 21
  1018 0FFD 99 D8 0E		            sta L0ED8,Y            ; 99 D8 0E
  1019 1000 8C CD 10		L1000       sty L10CC+1            ; 8C CD 10
  1020 1003 A2 EB		            ldx #$EB               ; A2 EB
  1021 1005 B9 D7 0E		L1005       lda L0ED7,Y            ; B9 D7 0E
  1022 1008 9D 4D 0D		            sta L0D4C+1,X          ; 9D 4D 0D
  1023 100B C8			            iny                    ; C8
  1024 100C E8			            inx                    ; E8
  1025 100D D0 F6		            bne L1005              ; D0 F6
  1026 100F A0 68		            ldy #$68               ; A0 68
  1027 1011 B9 55 0E		L1011       lda L0E55,Y            ; B9 55 0E
  1028 1014 CD 39 0E		            cmp L0E38+1            ; CD 39 0E
  1029 1017 F0 16		            beq L102F              ; F0 16
  1030 1019 98			            tya                    ; 98
  1031 101A 38			            sec                    ; 38
  1032 101B E9 1A		            sbc #$1A               ; E9 1A
  1033 101D A8			            tay                    ; A8
  1034 101E B0 F1		            bcs L1011              ; B0 F1
  1035 1020 20 BE 10		            jsr L10BE              ; 20 BE 10
  1036 1023 A0 85		L1023       ldy #$85               ; A0 85
  1037 1025 AD 9C 10		            lda L109B+1            ; AD 9C 10
  1038 1028 C9 2D		            cmp #$2D               ; C9 2D
  1039 102A D0 95		            bne L0FC1              ; D0 95
  1040 102C 4C BA 10		            jmp L10BA              ; 4C BA 10
  1041 102F A2 E6		L102F       ldx #$E6               ; A2 E6
  1042 1031 BD 6F 0D		L1031       lda L0D6F,X            ; BD 6F 0D
  1043 1034 48			            pha                    ; 48
  1044 1035 B9 55 0E		            lda L0E55,Y            ; B9 55 0E
  1045 1038 9D 6F 0D		            sta L0D6F,X            ; 9D 6F 0D
  1046 103B 68			            pla                    ; 68
  1047 103C 99 55 0E		            sta L0E55,Y            ; 99 55 0E
  1048 103F C8			            iny                    ; C8
  1049 1040 E8			            inx                    ; E8
  1050 1041 D0 EE		            bne L1031              ; D0 EE
  1051 1043 2C EC 0F		            bit L0FEB+1            ; 2C EC 0F
  1052 1046 10 4B		            bpl L1093              ; 10 4B
  1053 1048 20 E5 1B		            jsr L1BE5              ; 20 E5 1B
  1054 104B A0 07		            ldy #$07               ; A0 07
  1055 104D B1 43		            lda (FMSZPG),Y         ; B1 43
  1056 104F C9 80		            cmp #$80               ; C9 80
  1057 1051 D0 08		            bne L105B              ; D0 08
  1058 1053 A9 1F		            lda #$1F               ; A9 1F
  1059 1055 A8			            tay                    ; A8
  1060 1056 C8			            iny                    ; C8
  1061 1057 D1 43		            cmp (FMSZPG),Y         ; D1 43
  1062 1059 90 04		            bcc L105E+1            ; 90 04
  1063 105B 20 BE 10		L105B       jsr L10BE              ; 20 BE 10
  1064 105E 94 A0		L105E       sty L00A0,X            ; 94 A0
  1065 1060 16 B9		L1060       asl L00B9,X            ; 16 B9
  1066 1062 4D 0E D1		            eor LD10E              ; 4D 0E D1
  1067 1065 43			            .byte $43
  1068 1066 D0 15		            bne L107D              ; D0 15
  1069 1068 C8			            iny                    ; C8
  1070 1069 C0 1E		            cpy #$1E               ; C0 1E
  1071 106B 90 F4		            bcc L1060+1            ; 90 F4
  1072 106D A0 26		            ldy #$26               ; A0 26
  1073 106F B9 45 0E		L106F       lda L0E45,Y            ; B9 45 0E
  1074 1072 D1 43		            cmp (FMSZPG),Y         ; D1 43
  1075 1074 D0 07		            bne L107D              ; D0 07
  1076 1076 C8			            iny                    ; C8
  1077 1077 C0 28		            cpy #$28               ; C0 28
  1078 1079 90 F4		            bcc L106F              ; 90 F4
  1079 107B B0 16		            bcs L1093              ; B0 16
  1080 107D A9 99		L107D       lda #$99               ; A9 99
  1081 107F 20 31 11		            jsr L1131              ; 20 31 11
  1082 1082 C8			            iny                    ; C8
  1083 1083 B1 43		            lda (FMSZPG),Y         ; B1 43
  1084 1085 AC 39 0E		            ldy L0E38+1            ; AC 39 0E
  1085 1088 99 E9 0D		L1088       sta L0DE9,Y            ; 99 E9 0D
  1086 108B 20 19 09		            jsr L0919              ; 20 19 09
  1087 108E 22 CC E3 91 14	            .byte $22,$CC,$E3,$91,$14
  1088 1093 AC 39 0E		L1093       ldy L0E38+1            ; AC 39 0E
  1089 1096 B9 E9 0D		            lda L0DE9,Y            ; B9 E9 0D
  1090 1099 85 45		            sta FMSZPG+2           ; 85 45
  1091 109B A0 00		L109B       ldy #$00               ; A0 00
  1092 109D 20 59 0F		            jsr L0F59              ; 20 59 0F
  1093 10A0 2C EC 0F		            bit L0FEB+1            ; 2C EC 0F
  1094 10A3 50 06		            bvc L10AB              ; 50 06
  1095 10A5 20 E2 10		            jsr L10E2              ; 20 E2 10
  1096 10A8 8E 38 0E		            stx L0E38              ; 8E 38 0E
  1097 10AB AC CD 10		L10AB       ldy L10CC+1            ; AC CD 10
  1098 10AE A2 EB		            ldx #$EB               ; A2 EB
  1099 10B0 BD 4D 0D		L10B0       lda L0D4C+1,X          ; BD 4D 0D
  1100 10B3 99 D7 0E		            sta L0ED7,Y            ; 99 D7 0E
  1101 10B6 C8			            iny                    ; C8
  1102 10B7 E8			            inx                    ; E8
  1103 10B8 D0 F6		            bne L10B0              ; D0 F6
  1104 10BA A0 01		L10BA       ldy #$01               ; A0 01
  1105 10BC D0 1D		            bne L10DB              ; D0 1D
  1106 10BE 20 C5 08		L10BE       jsr L08C5              ; 20 C5 08
  1107 10C1 A8			            tay                    ; A8
  1108 10C2 A2 00		L10C2       ldx #$00               ; A2 00
  1109 10C4 9A			            txs                    ; 9A
  1110 10C5 98			            tya                    ; 98
  1111 10C6 48			            pha                    ; 48
  1112 10C7 AD EC 0F		            lda L0FEB+1            ; AD EC 0F
  1113 10CA F0 07		            beq L10D3              ; F0 07
  1114 10CC A0 00		L10CC       ldy #$00               ; A0 00
  1115 10CE A9 FF		            lda #$FF               ; A9 FF
  1116 10D0 99 D7 0E		            sta L0ED7,Y            ; 99 D7 0E
  1117 10D3 20 E2 10		L10D3       jsr L10E2              ; 20 E2 10
  1118 10D6 20 14 11		            jsr L1114              ; 20 14 11
  1119 10D9 68			            pla                    ; 68
  1120 10DA A8			            tay                    ; A8
  1121 10DB A9 00		L10DB       lda #$00               ; A9 00
  1122 10DD A6 46		            ldx FMSZPG+3           ; A6 46
  1123 10DF C0 00		            cpy #$00               ; C0 00
  1124 10E1 60			            rts                    ; 60
  1125 10E2 AE 39 0E		L10E2       ldx L0E38+1            ; AE 39 0E
  1126 10E5 BD 4C 0E		            lda L0E4B+1,X          ; BD 4C 0E
  1127 10E8 10 11		            bpl L10FB              ; 10 11
  1128 10EA 5E 4C 0E		            lsr L0E4B+1,X          ; 5E 4C 0E
  1129 10ED 20 E5 1B		            jsr L1BE5              ; 20 E5 1B
  1130 10F0 20 2B 1C		            jsr L1C2B              ; 20 2B 1C
  1131 10F3 EE 6B 0E		            inc L0E6B              ; EE 6B 0E
  1132 10F6 A9 B9		            lda #$B9               ; A9 B9
  1133 10F8 20 31 11		            jsr L1131              ; 20 31 11
  1134 10FB A2 03		L10FB       ldx #$03               ; A2 03
  1135 10FD CA			L10FD       dex                    ; CA
  1136 10FE 30 13		            bmi L1113              ; 30 13
  1137 1100 20 0C 11		            jsr L110C              ; 20 0C 11
  1138 1103 D0 F8		            bne L10FD              ; D0 F8
  1139 1105 90 F6		            bcc L10FD              ; 90 F6
  1140 1107 20 13 1B		L1107       jsr L1B11+2            ; 20 13 1B
  1141 110A 10 EF		            bpl L10FB              ; 10 EF
  1142 110C BD 40 0F		L110C       lda L0F40,X            ; BD 40 0F
  1143 110F 4D 39 0E		            eor L0E38+1            ; 4D 39 0E
  1144 1112 0A			            asl                    ; 0A
  1145 1113 60			L1113       rts                    ; 60
  1146 1114 A2 02		L1114       ldx #$02               ; A2 02
  1147 1116 20 0C 11		L1116       jsr L110C              ; 20 0C 11
  1148 1119 D0 03		            bne L111E              ; D0 03
  1149 111B 9D 40 0F		            sta L0F40,X            ; 9D 40 0F
  1150 111E CA			L111E       dex                    ; CA
  1151 111F 10 F5		            bpl L1116              ; 10 F5
  1152 1121 A0 54		L1121       ldy #$54               ; A0 54
  1153 1123 8A			L1123       txa                    ; 8A
  1154 1124 D9 D7 0E		            cmp L0ED7,Y            ; D9 D7 0E
  1155 1127 F0 07		            beq L1130              ; F0 07
  1156 1129 98			            tya                    ; 98
  1157 112A 38			            sec                    ; 38
  1158 112B E9 15		            sbc #$15               ; E9 15
  1159 112D A8			            tay                    ; A8
  1160 112E B0 F3		            bcs L1123              ; B0 F3
  1161 1130 60			L1130       rts                    ; 60
  1162 1131 8D 49 11		L1131       sta L1149              ; 8D 49 11
  1163 1134 8D 3B 11		            sta L113B              ; 8D 3B 11
  1164 1137 A0 26		            ldy #$26               ; A0 26
  1165 1139 B1 43		L1139       lda (FMSZPG),Y         ; B1 43
  1166 113B 99 45 0E		L113B       sta L0E45,Y            ; 99 45 0E
  1167 113E 91 43		            sta (FMSZPG),Y         ; 91 43
  1168 1140 C8			            iny                    ; C8
  1169 1141 C0 28		            cpy #$28               ; C0 28
  1170 1143 90 F4		            bcc L1139              ; 90 F4
  1171 1145 A0 09		            ldy #$09               ; A0 09
  1172 1147 B1 43		L1147       lda (FMSZPG),Y         ; B1 43
  1173 1149 B9 4D 0E		L1149       lda L0E4D,Y            ; B9 4D 0E
  1174 114C 91 43		            sta (FMSZPG),Y         ; 91 43
  1175 114E C8			            iny                    ; C8
  1176 114F C0 1E		            cpy #$1E               ; C0 1E
  1177 1151 90 F4		            bcc L1147              ; 90 F4
  1178 1153 60			            rts                    ; 60
  1179 1154 20 19 09		            jsr L0919              ; 20 19 09
  1180 1157 C0 28		            cpy #$28               ; C0 28
  1181 1159 51 86		            eor (L0086),Y          ; 51 86
  1182 115B A0 20		            ldy #$20               ; A0 20
  1183 115D 20 82 11		            jsr L1181+1            ; 20 82 11
  1184 1160 A0 1F		            ldy #$1F               ; A0 1F
  1185 1162 20 82 11		            jsr L1181+1            ; 20 82 11
  1186 1165 A0 0B		            ldy #$0B               ; A0 0B
  1187 1167 20 82 11		L1167       jsr L1181+1            ; 20 82 11
  1188 116A C0 0F		            cpy #$0F               ; C0 0F
  1189 116C 90 F9		            bcc L1167              ; 90 F9
  1190 116E A0 16		            ldy #$16               ; A0 16
  1191 1170 20 82 11		L1170       jsr L1181+1            ; 20 82 11
  1192 1173 C0 1E		            cpy #$1E               ; C0 1E
  1193 1175 90 F9		            bcc L1170              ; 90 F9
  1194 1177 A0 26		            ldy #$26               ; A0 26
  1195 1179 20 82 11		            jsr L1181+1            ; 20 82 11
  1196 117C 20 82 11		            jsr L1181+1            ; 20 82 11
  1197 117F A9 00		            lda #$00               ; A9 00
  1198 1181 2C B1 43		L1181       bit L43B1              ; 2C B1 43
  1199 1184 C8			            iny                    ; C8
  1200 1185 9D FF FF		L1185       sta LFFFF,X            ; 9D FF FF
  1201 1188 E8			            inx                    ; E8
  1202 1189 60			            rts                    ; 60
  1203 118A A2 FD		L118A       ldx #$FD               ; A2 FD
  1204 118C AD EA 0C		L118C       lda DECOUT+4            ; AD EA 0C
  1205 118F C9 20		            cmp #$20               ; C9 20
  1206 1191 D0 04		            bne L1196+1            ; D0 04
  1207 1193 BD EE 0B		            lda L0BEE,X            ; BD EE 0B
  1208 1196 2C A9 39		L1196       bit L39A9              ; 2C A9 39
  1209 1199 09 30		            ora #$30               ; 09 30
  1210 119B 9D EE 0B		            sta L0BEE,X            ; 9D EE 0B
  1211 119E E8			            inx                    ; E8
  1212 119F D0 EB		            bne L118C              ; D0 EB
  1213 11A1 60			            rts                    ; 60
  1214 11A2 20 DA 14		L11A2       jsr L14DA              ; 20 DA 14
  1215 11A5 91 20		            sta (ICHIDZ),Y         ; 91 20
  1216 11A7 19 09 11		            ora L1107+2,Y          ; 19 09 11
  1217 11AA 8A			            txa                    ; 8A
  1218 11AB 4C EB 6D		            jmp L6DEB              ; 4C EB 6D
  1219 11AE 9D AC 4F		            sta L4FAC,X            ; 9D AC 4F
  1220 11B1 17			            .byte $17
  1221 11B2 F0 61		            beq L1215              ; F0 61
  1222 11B4 20 19 09		L11B4       jsr L0919              ; 20 19 09
  1223 11B7 4E 5A 4C F3		            .byte $4E,$5A,$4C,$F3
  1224 11BB 87 25 A2		            .byte $87,$25,$A2
  1225 11BE 00			L11BE       .byte $00
  1226 11BF 10 E1		            bpl L11A2              ; 10 E1
  1227 11C1 20 DA 14		            jsr L14DA              ; 20 DA 14
  1228 11C4 94 20		            sty ICHIDZ,X           ; 94 20
  1229 11C6 19 09 4C		            ora L4C09,Y            ; 19 09 4C
  1230 11C9 E8			            inx                    ; E8
  1231 11CA CD 9D AC		            cmp LAC9D              ; CD 9D AC
  1232 11CD 4F 1A		            .byte $4F,$1A
  1233 11CF F0 44		            beq L1215              ; F0 44
  1234 11D1 20 DA 14		L11D1       jsr L14DA              ; 20 DA 14
  1235 11D4 12			            .byte $12
  1236 11D5 20 19 09		            jsr L0919              ; 20 19 09
  1237 11D8 AB			            .byte $AB
  1238 11D9 9D 15 AD		            sta LAD15,X            ; 9D 15 AD
  1239 11DC 21 0E		            and (APPMHI,X)         ; 21 0E
  1240 11DE 4A			            lsr                    ; 4A
  1241 11DF 90 05		            bcc L11E6              ; 90 05
  1242 11E1 A2 2A		            ldx #$2A               ; A2 2A
  1243 11E3 8E 9D 0D		            stx L0D9D              ; 8E 9D 0D
  1244 11E6 29 10		L11E6       and #$10               ; 29 10
  1245 11E8 F0 06		            beq L11EF+1            ; F0 06
  1246 11EA 20 19 09		            jsr L0919              ; 20 19 09
  1247 11ED A3 47		            .byte $A3,$47
  1248 11EF 1D AD 24		L11EF       ora L24AD,X            ; 1D AD 24
  1249 11F2 0E AE 25		            asl L25AE              ; 0E AE 25
  1250 11F5 0E AC 26		            asl L26AC              ; 0E AC 26
  1251 11F8 0E 20 FD		            asl LFD20              ; 0E 20 FD
  1252 11FB 14			            .byte $14
  1253 11FC C9 00		            cmp #$00               ; C9 00
  1254 11FE F0 04		            beq L1204              ; F0 04
  1255 1200 E8			            inx                    ; E8
  1256 1201 D0 01		            bne L1204              ; D0 01
  1257 1203 C8			            iny                    ; C8
  1258 1204 8E F3 0C		L1204       stx DECIN              ; 8E F3 0C
  1259 1207 8C F4 0C		            sty DECIN+1              ; 8C F4 0C
  1260 120A 20 19 09		            jsr L0919              ; 20 19 09
  1261 120D 07			            .byte $07
  1262 120E 25 11		            and BRKKEY             ; 25 11
  1263 1210 8A			            txa                    ; 8A
  1264 1211 CC EB 6D		            cpy L6DEB              ; CC EB 6D
  1265 1214 AB			            .byte $AB
  1266 1215 F0 5D		L1215       beq L1274              ; F0 5D
  1267 1217 20 19 09		L1217       jsr L0919              ; 20 19 09
  1268 121A 2B			            .byte $2B
  1269 121B 08			            php                    ; 08
  1270 121C 81 9D		            sta (L009D,X)          ; 81 9D
  1271 121E BF			            .byte $BF
  1272 121F D0 93		            bne L11B4              ; D0 93
  1273 1221 2C BE 11		            bit L11BE              ; 2C BE 11
  1274 1224 10 AB		            bpl L11D1              ; 10 AB
  1275 1226 20 DA 14		            jsr L14DA              ; 20 DA 14
  1276 1229 24 20		            bit ICHIDZ             ; 24 20
  1277 122B 19 09 28		            ora L2809,Y            ; 19 09 28
  1278 122E 9D 13 23		            sta L2313,X            ; 9D 13 23
  1279 1231 A5 1C		            lda ABUFPT             ; A5 1C
  1280 1233 25 4A		            and ZCHAIN             ; 25 4A
  1281 1235 20 21 80		            jsr L8021              ; 20 21 80
  1282 1238 29 21		            and #$21               ; 29 21
  1283 123A 80			            .byte $80
  1284 123B 2C A1 07		            bit L07A1              ; 2C A1 07
  1285 123E 32			            .byte $32
  1286 123F AD 21 0E		            lda L0E1F+2            ; AD 21 0E
  1287 1242 29 20		            and #$20               ; 29 20
  1288 1244 D0 0D		            bne L1252+1            ; D0 0D
  1289 1246 20 19 09		            jsr L0919              ; 20 19 09
  1290 1249 4E 24 6C		            lsr L6C24              ; 4E 24 6C
  1291 124C F3 07		            .byte $F3,$07
  1292 124E 2A			            rol                    ; 2A
  1293 124F CC E7 ED		            cpy LEDE7              ; CC E7 ED
  1294 1252 A9 A0		L1252       lda #$A0               ; A9 A0
  1295 1254 FB			            .byte $FB
  1296 1255 8A			L1255       txa                    ; 8A
  1297 1256 48			            pha                    ; 48
  1298 1257 B9 37 0D		            lda RUNLOC+1,Y          ; B9 37 0D
  1299 125A 20 1D 07		            jsr L071D              ; 20 1D 07
  1300 125D 20 8A 11		            jsr L118A              ; 20 8A 11
  1301 1260 68			            pla                    ; 68
  1302 1261 AA			            tax                    ; AA
  1303 1262 AD EC 0C		            lda DECOUT+6              ; AD EC 0C
  1304 1265 9D B1 0D		            sta L0DB1,X            ; 9D B1 0D
  1305 1268 AD ED 0C		            lda DECOUT+7            ; AD ED 0C
  1306 126B 9D B2 0D		            sta L0DB2,X            ; 9D B2 0D
  1307 126E E8			            inx                    ; E8
  1308 126F E8			            inx                    ; E8
  1309 1270 E8			            inx                    ; E8
  1310 1271 C8			            iny                    ; C8
  1311 1272 D0 E1		            bne L1255              ; D0 E1
  1312 1274 CE 84 12		L1274       dec L1283+1            ; CE 84 12
  1313 1277 A2 00		L1277       ldx #$00               ; A2 00
  1314 1279 BD 9D 0D		            lda L0D9D,X            ; BD 9D 0D
  1315 127C EE 78 12		            inc L1277+1            ; EE 78 12
  1316 127F 8D DC 10		            sta L10DB+1            ; 8D DC 10
  1317 1282 60			            rts                    ; 60
  1318 1283 A9 00		L1283       lda #$00               ; A9 00
  1319 1285 0A			            asl                    ; 0A
  1320 1286 D0 EC		            bne L1274              ; D0 EC
  1321 1288 B0 64		            bcs L12EE              ; B0 64
  1322 128A 4C 17 12		            jmp L1217              ; 4C 17 12
  1323 128D AE 48 0E		            ldx L0E48              ; AE 48 0E
  1324 1290 E0 16		            cpx #$16               ; E0 16
  1325 1292 F0 EF		            beq L1283              ; F0 EF
  1326 1294 A9 6A		            lda #$6A               ; A9 6A
  1327 1296 49 6A		            eor #$6A               ; 49 6A
  1328 1298 85 48		            sta FMSZPG+5           ; 85 48
  1329 129A 29 0C		            and #$0C               ; 29 0C
  1330 129C 49 07		            eor #$07               ; 49 07
  1331 129E C5 22		            cmp ICCOMZ             ; C5 22
  1332 12A0 D0 3D		            bne L12DF              ; D0 3D
  1333 12A2 A9 00		L12A2       lda #$00               ; A9 00
  1334 12A4 C9 E4		            cmp #$E4               ; C9 E4
  1335 12A6 90 37		            bcc L12DF              ; 90 37
  1336 12A8 A4 29		            ldy ICBLHZ             ; A4 29
  1337 12AA D0 05		            bne L12B1              ; D0 05
  1338 12AC C8			            iny                    ; C8
  1339 12AD C4 28		            cpy ICBLLZ             ; C4 28
  1340 12AF B0 2E		            bcs L12DF              ; B0 2E
  1341 12B1 20 19 09		L12B1       jsr L0919              ; 20 19 09
  1342 12B4 40			            rti                    ; 40
  1343 12B5 24 54		            bit ROWCRS             ; 24 54
  1344 12B7 27			            .byte $27
  1345 12B8 40			            rti                    ; 40
  1346 12B9 28			            plp                    ; 28
  1347 12BA 4E 51 93		            lsr L9351              ; 4E 51 93
  1348 12BD 6A			            ror                    ; 6A
  1349 12BE 08			            php                    ; 08
  1350 12BF 20 19 09		            jsr L0919              ; 20 19 09
  1351 12C2 54 27		            .byte $54,$27
  1352 12C4 40			            rti                    ; 40
  1353 12C5 24 CE		            bit L00CE              ; 24 CE
  1354 12C7 51 40		            eor (FREQ),Y           ; 51 40
  1355 12C9 28			            plp                    ; 28
  1356 12CA 28			            plp                    ; 28
  1357 12CB 30 21		            bmi L12EE              ; 30 21
  1358 12CD 20 69 08		            jsr L0869              ; 20 69 08
  1359 12D0 24 00		            bit L0000              ; 24 00
  1360 12D2 A1 23		            lda (ICSTAZ,X)         ; A1 23
  1361 12D4 E6 28		            inc ICBLLZ             ; E6 28
  1362 12D6 8D DC 10		            sta L10DB+1            ; 8D DC 10
  1363 12D9 20 BF 14		L12D9       jsr L14BF              ; 20 BF 14
  1364 12DC F0 12		            beq L12F0              ; F0 12
  1365 12DE 60			            rts                    ; 60
  1366 12DF 20 19 09		L12DF       jsr L0919              ; 20 19 09
  1367 12E2 52 D7 54 27		            .byte $52,$D7,$54,$27
  1368 12E6 A2 7E		            ldx #$7E               ; A2 7E
  1369 12E8 C7			            .byte $C7
  1370 12E9 20 6A 13		            jsr L136A              ; 20 6A 13
  1371 12EC 10 EB		            bpl L12D9              ; 10 EB
  1372 12EE A9 8B		L12EE       lda #$8B               ; A9 8B
  1373 12F0 49 03		L12F0       eor #$03               ; 49 03
  1374 12F2 8D BB 10		            sta L10BA+1            ; 8D BB 10
  1375 12F5 60			            rts                    ; 60
  1376 12F6 20 4C 0F		L12F6       jsr L0F4C              ; 20 4C 0F
  1377 12F9 C8			            iny                    ; C8
  1378 12FA C8			            iny                    ; C8
  1379 12FB 8C 3F 0E		            sty L0E3F              ; 8C 3F 0E
  1380 12FE C4 45		            cpy FMSZPG+2           ; C4 45
  1381 1300 D0 43		            bne L1345              ; D0 43
  1382 1302 20 4C 0F		            jsr L0F4C              ; 20 4C 0F
  1383 1305 A0 00		            ldy #$00               ; A0 00
  1384 1307 B1 43		            lda (FMSZPG),Y         ; B1 43
  1385 1309 AA			            tax                    ; AA
  1386 130A C8			            iny                    ; C8
  1387 130B 11 43		            ora (FMSZPG),Y         ; 11 43
  1388 130D D0 26		            bne L1335              ; D0 26
  1389 130F 20 6C 1B		            jsr L1B6C              ; 20 6C 1B
  1390 1312 A0 02		            ldy #$02               ; A0 02
  1391 1314 B9 3B 0E		L1314       lda L0E3B,Y            ; B9 3B 0E
  1392 1317 91 43		            sta (FMSZPG),Y         ; 91 43
  1393 1319 C8			            iny                    ; C8
  1394 131A C0 04		            cpy #$04               ; C0 04
  1395 131C 90 F6		            bcc L1314              ; 90 F6
  1396 131E 20 4C 0F		            jsr L0F4C              ; 20 4C 0F
  1397 1321 A0 01		            ldy #$01               ; A0 01
  1398 1323 B9 E5 0D		L1323       lda L0DE5,Y            ; B9 E5 0D
  1399 1326 91 43		            sta (FMSZPG),Y         ; 91 43
  1400 1328 88			            dey                    ; 88
  1401 1329 10 F8		            bpl L1323              ; 10 F8
  1402 132B 20 19 09		            jsr L0919              ; 20 19 09
  1403 132E 1C 2B		            .byte $1C,$2B
  1404 1330 A2 5B		            ldx #$5B               ; A2 5B
  1405 1332 B3			            .byte $B3
  1406 1333 F0 08		            beq L133D              ; F0 08
  1407 1335 B1 43		L1335       lda (FMSZPG),Y         ; B1 43
  1408 1337 8D 3E 0E		            sta L0E3E              ; 8D 3E 0E
  1409 133A 8E 3D 0E		            stx L0E3B+2            ; 8E 3D 0E
  1410 133D 20 4C 0F		L133D       jsr L0F4C              ; 20 4C 0F
  1411 1340 A0 04		            ldy #$04               ; A0 04
  1412 1342 8C 3F 0E		            sty L0E3F              ; 8C 3F 0E
  1413 1345 B1 43		L1345       lda (FMSZPG),Y         ; B1 43
  1414 1347 8D 3A 0E		            sta L0E38+2            ; 8D 3A 0E
  1415 134A C8			            iny                    ; C8
  1416 134B B1 43		            lda (FMSZPG),Y         ; B1 43
  1417 134D 8D 3B 0E		            sta L0E3B              ; 8D 3B 0E
  1418 1350 0D 3A 0E		            ora L0E38+2            ; 0D 3A 0E
  1419 1353 60			            rts                    ; 60
  1420 1354 38			L1354       sec                    ; 38
  1421 1355 A2 FD		            ldx #$FD               ; A2 FD
  1422 1357 BD 48 0D		L1357       lda L0D47+1,X          ; BD 48 0D
  1423 135A FD 43 0D		            sbc L0D41+2,X          ; FD 43 0D
  1424 135D E8			            inx                    ; E8
  1425 135E D0 F7		            bne L1357              ; D0 F7
  1426 1360 B0 07		            bcs L1369              ; B0 07
  1427 1362 20 19 09		            jsr L0919              ; 20 19 09
  1428 1365 A3			            .byte $A3
  1429 1366 B6 BB		            ldx L00BB,Y            ; B6 BB
  1430 1368 18			            clc                    ; 18
  1431 1369 60			L1369       rts                    ; 60
  1432 136A AD 48 0E		L136A       lda L0E48              ; AD 48 0E
  1433 136D A0 83		            ldy #$83               ; A0 83
  1434 136F 24 48		            bit FMSZPG+5           ; 24 48
  1435 1371 10 03		            bpl L1376              ; 10 03
  1436 1373 4A			            lsr                    ; 4A
  1437 1374 A0 87		            ldy #$87               ; A0 87
  1438 1376 29 04		L1376       and #$04               ; 29 04
  1439 1378 D0 45		            bne L13BF              ; D0 45
  1440 137A 4C C2 10		            jmp L10C2              ; 4C C2 10
  1441 137D AD 48 0E		            lda L0E48              ; AD 48 0E
  1442 1380 C9 16		            cmp #$16               ; C9 16
  1443 1382 D0 03		            bne L1387              ; D0 03
  1444 1384 4E 53 0E		            lsr L0E52+1            ; 4E 53 0E
  1445 1387 29 08		L1387       and #$08               ; 29 08
  1446 1389 F0 DE		            beq L1369              ; F0 DE
  1447 138B 20 19 09		            jsr L0919              ; 20 19 09
  1448 138E 23 BB		L138E       .byte $23,$BB
  1449 1390 8C 22 BF		            sty LBF22              ; 8C 22 BF
  1450 1393 B9 15 0C		            lda L0C15,Y            ; B9 15 0C
  1451 1396 13 9E		            .byte $13,$9E
  1452 1398 A3			L1398       .byte $A3
  1453 1399 8C 9A A9		L1399       sty LA99A              ; 8C 9A A9
  1454 139C FF			            .byte $FF
  1455 139D 2C A9 00		L139D       bit.w L00A9            ; 2C A9 00
  1456 13A0 48			            pha                    ; 48
  1457 13A1 20 19 09		            jsr L0919              ; 20 19 09
  1458 13A4 22			            .byte $22
  1459 13A5 C1 64		            cmp (ADRESS,X)         ; C1 64
  1460 13A7 21 76		            and (DELTAR,X)         ; 21 76
  1461 13A9 66 94		            ror L0094              ; 66 94
  1462 13AB 3E 68 2C		            rol L2C68,X            ; 3E 68 2C
  1463 13AE A9 00		L13AE       lda #$00               ; A9 00
  1464 13B0 2C A9 FF		            bit LFFA9              ; 2C A9 FF
  1465 13B3 85 48		            sta FMSZPG+5           ; 85 48
  1466 13B5 20 19 09		            jsr L0919              ; 20 19 09
  1467 13B8 51 DC		            eor (L00DC),Y          ; 51 DC
  1468 13BA 54 27		            .byte $54,$27
  1469 13BC A2 7C		            ldx #$7C               ; A2 7C
  1470 13BE C7			            .byte $C7
  1471 13BF A5 45		L13BF       lda FMSZPG+2           ; A5 45
  1472 13C1 38			            sec                    ; 38
  1473 13C2 ED 3C 0E		            sbc L0E3B+1            ; ED 3C 0E
  1474 13C5 D0 02		            bne L13C9              ; D0 02
  1475 13C7 A9 FF		            lda #$FF               ; A9 FF
  1476 13C9 8D 89 14		L13C9       sta L1488+1            ; 8D 89 14
  1477 13CC AD 52 0E		            lda L0E52              ; AD 52 0E
  1478 13CF D0 08		            bne L13D9              ; D0 08
  1479 13D1 AD 51 0E		            lda L0E51              ; AD 51 0E
  1480 13D4 F0 1F		            beq L13F5              ; F0 1F
  1481 13D6 20 F5 14		            jsr L14F5              ; 20 F5 14
  1482 13D9 20 BF 14		L13D9       jsr L14BF              ; 20 BF 14
  1483 13DC F0 16		            beq L13F3+1            ; F0 16
  1484 13DE 20 F5 14		            jsr L14F5              ; 20 F5 14
  1485 13E1 AD 3A 0E		            lda L0E38+2            ; AD 3A 0E
  1486 13E4 0D 3B 0E		            ora L0E3B              ; 0D 3B 0E
  1487 13E7 D0 25		            bne L140E              ; D0 25
  1488 13E9 AD 48 0E		            lda L0E48              ; AD 48 0E
  1489 13EC 29 08		            and #$08               ; 29 08
  1490 13EE D0 06		            bne L13F6              ; D0 06
  1491 13F0 20 BE 10		L13F0       jsr L10BE              ; 20 BE 10
  1492 13F3 A6 CA		L13F3       ldx L00CA              ; A6 CA
  1493 13F5 60			L13F5       rts                    ; 60
  1494 13F6 20 19 09		L13F6       jsr L0919              ; 20 19 09
  1495 13F9 1B			            .byte $1B
  1496 13FA 6C 22 5B		            jmp (L5B22)            ; 6C 22 5B
  1497 13FD B0 8F		            bcs L138E              ; B0 8F
  1498 13FF 4C AD E5		            jmp LE5AD              ; 4C AD E5
  1499 1402 0D 91 43		            ora L4391              ; 0D 91 43
  1500 1405 C8			            iny                    ; C8
  1501 1406 AD E6 0D		            lda L0DE6              ; AD E6 0D
  1502 1409 91 43		            sta (FMSZPG),Y         ; 91 43
  1503 140B 20 2B 1C		            jsr L1C2B              ; 20 2B 1C
  1504 140E AE 3A 0E		L140E       ldx L0E38+2            ; AE 3A 0E
  1505 1411 AD 3B 0E		            lda L0E3B              ; AD 3B 0E
  1506 1414 20 19 09		            jsr L0919              ; 20 19 09
  1507 1417 1B			            .byte $1B
  1508 1418 E9 D4		            sbc #$D4               ; E9 D4
  1509 141A 27 54 82		            .byte $27,$54,$82
  1510 141D AC 3C 0E		            ldy L0E3B+1            ; AC 3C 0E
  1511 1420 24 48		            bit FMSZPG+5           ; 24 48
  1512 1422 30 5D		            bmi L1480+1            ; 30 5D
  1513 1424 B1 43		L1424       lda (FMSZPG),Y         ; B1 43
  1514 1426 9D FF FF		            sta LFFFF,X            ; 9D FF FF
  1515 1429 C8			            iny                    ; C8
  1516 142A E8			            inx                    ; E8
  1517 142B EC 89 14		            cpx L1488+1            ; EC 89 14
  1518 142E D0 F4		            bne L1424              ; D0 F4
  1519 1430 F0 5D		            beq L148F              ; F0 5D
  1520 1432 A0 FD		            ldy #$FD               ; A0 FD
  1521 1434 BD 4C 03		L1434       lda IOCB0+ICAX3,X      ; BD 4C 03
  1522 1437 99 F1 0C		            sta ECHOFLG,Y          ; 99 F1 0C
  1523 143A E8			            inx                    ; E8
  1524 143B C8			            iny                    ; C8
  1525 143C D0 F6		            bne L1434              ; D0 F6
  1526 143E AD F0 0D		L143E       lda L0DF0              ; AD F0 0D
  1527 1441 30 AD		            bmi L13F0              ; 30 AD
  1528 1443 20 19 09		            jsr L0919              ; 20 19 09
  1529 1446 21 79		            and (KEYDEF,X)         ; 21 79
  1530 1448 B5 22		            lda ICCOMZ,X           ; B5 22
  1531 144A B9 B3 23		            lda L23B3,Y            ; B9 B3 23
  1532 144D 64			            .byte $64
  1533 144E B6 93		            ldx L0093,Y            ; B6 93
  1534 1450 54			            .byte $54
  1535 1451 B0 07		            bcs L145A              ; B0 07
  1536 1453 AD 48 0E		            lda L0E48              ; AD 48 0E
  1537 1456 29 08		            and #$08               ; 29 08
  1538 1458 F0 96		            beq L13F0              ; F0 96
  1539 145A AD EE 0D		L145A       lda L0DEE              ; AD EE 0D
  1540 145D AE EF 0D		            ldx L0DEF              ; AE EF 0D
  1541 1460 AC F0 0D		            ldy L0DF0              ; AC F0 0D
  1542 1463 20 FD 14		            jsr L14FD              ; 20 FD 14
  1543 1466 8D 3C 0E		            sta L0E3B+1            ; 8D 3C 0E
  1544 1469 8E EE 0D		            stx L0DEE              ; 8E EE 0D
  1545 146C 8C EF 0D		            sty L0DEF              ; 8C EF 0D
  1546 146F 20 F6 12		            jsr L12F6              ; 20 F6 12
  1547 1472 AD EE 0D		            lda L0DEE              ; AD EE 0D
  1548 1475 0D EF 0D		            ora L0DEF              ; 0D EF 0D
  1549 1478 F0 5F		            beq L14D9              ; F0 5F
  1550 147A 20 69 08		            jsr L0869              ; 20 69 08
  1551 147D EE 0D B0		            inc LB00D              ; EE 0D B0
  1552 1480 EE BD FF		L1480       inc LFFBD              ; EE BD FF
  1553 1483 FF			            .byte $FF
  1554 1484 91 43		            sta (FMSZPG),Y         ; 91 43
  1555 1486 C8			            iny                    ; C8
  1556 1487 E8			            inx                    ; E8
  1557 1488 E0 00		L1488       cpx #$00               ; E0 00
  1558 148A D0 F5		            bne L1480+1            ; D0 F5
  1559 148C 20 2B 1C		            jsr L1C2B              ; 20 2B 1C
  1560 148F AD 89 14		L148F       lda L1488+1            ; AD 89 14
  1561 1492 20 6B 08		            jsr L086B              ; 20 6B 08
  1562 1495 51 0E		            eor (APPMHI),Y         ; 51 0E
  1563 1497 20 5F 08		            jsr L085F              ; 20 5F 08
  1564 149A 27 14		            .byte $27,$14
  1565 149C 20 5F 08		            jsr L085F              ; 20 5F 08
  1566 149F 40			            rti                    ; 40
  1567 14A0 0E 90 03		            asl IOCB5              ; 0E 90 03
  1568 14A3 EE 42 0E		            inc L0E42              ; EE 42 0E
  1569 14A6 20 54 13		            jsr L1354              ; 20 54 13
  1570 14A9 AD 3C 0E		L14A9       lda L0E3B+1            ; AD 3C 0E
  1571 14AC 18			            clc                    ; 18
  1572 14AD 6D 89 14		            adc L1488+1            ; 6D 89 14
  1573 14B0 C5 45		            cmp FMSZPG+2           ; C5 45
  1574 14B2 D0 05		            bne L14B9              ; D0 05
  1575 14B4 20 F6 12		            jsr L12F6              ; 20 F6 12
  1576 14B7 A9 00		            lda #$00               ; A9 00
  1577 14B9 8D 3C 0E		L14B9       sta L0E3B+1            ; 8D 3C 0E
  1578 14BC 4C BF 13		            jmp L13BF              ; 4C BF 13
  1579 14BF A2 FD		L14BF       ldx #$FD               ; A2 FD
  1580 14C1 38			            sec                    ; 38
  1581 14C2 BD 48 0D		L14C2       lda L0D47+1,X          ; BD 48 0D
  1582 14C5 FD 43 0D		            sbc L0D41+2,X          ; FD 43 0D
  1583 14C8 9D F1 0C		            sta ECHOFLG,X          ; 9D F1 0C
  1584 14CB E8			            inx                    ; E8
  1585 14CC D0 F4		            bne L14C2              ; D0 F4
  1586 14CE 24 48		            bit FMSZPG+5           ; 24 48
  1587 14D0 30 05		            bmi L14D7              ; 30 05
  1588 14D2 0D EF 0D		            ora L0DEF              ; 0D EF 0D
  1589 14D5 F0 1A		            beq L14F1              ; F0 1A
  1590 14D7 A9 FF		L14D7       lda #$FF               ; A9 FF
  1591 14D9 60			L14D9       rts                    ; 60
  1592 14DA 20 C5 08		L14DA       jsr L08C5              ; 20 C5 08
  1593 14DD 8D 84 12		            sta L1283+1            ; 8D 84 12
  1594 14E0 0A			            asl                    ; 0A
  1595 14E1 4A			            lsr                    ; 4A
  1596 14E2 AA			            tax                    ; AA
  1597 14E3 A9 9B		            lda #$9B               ; A9 9B
  1598 14E5 A8			            tay                    ; A8
  1599 14E6 9D 9C 0D		L14E6       sta L0D9C,X            ; 9D 9C 0D
  1600 14E9 A9 20		            lda #$20               ; A9 20
  1601 14EB CA			            dex                    ; CA
  1602 14EC D0 F8		            bne L14E6              ; D0 F8
  1603 14EE 8E 78 12		            stx L1277+1            ; 8E 78 12
  1604 14F1 AD EE 0D		L14F1       lda L0DEE              ; AD EE 0D
  1605 14F4 60			            rts                    ; 60
  1606 14F5 CD 89 14		L14F5       cmp L1488+1            ; CD 89 14
  1607 14F8 B0 DF		            bcs L14D9              ; B0 DF
  1608 14FA 8D 89 14		            sta L1488+1            ; 8D 89 14
  1609 14FD 24 45		L14FD       bit FMSZPG+2           ; 24 45
  1610 14FF 10 0A		            bpl L150B              ; 10 0A
  1611 1501 0A			            asl                    ; 0A
  1612 1502 48			            pha                    ; 48
  1613 1503 8A			            txa                    ; 8A
  1614 1504 2A			            rol                    ; 2A
  1615 1505 AA			            tax                    ; AA
  1616 1506 98			            tya                    ; 98
  1617 1507 2A			            rol                    ; 2A
  1618 1508 A8			            tay                    ; A8
  1619 1509 68			            pla                    ; 68
  1620 150A 4A			            lsr                    ; 4A
  1621 150B 60			L150B       rts                    ; 60
  1622 150C A9 14		L150C       lda #$14               ; A9 14
  1623 150E 2C A9 0C		            bit L0CA9              ; 2C A9 0C
  1624 1511 8D 48 0E		L1511       sta L0E48              ; 8D 48 0E
  1625 1514 48			            pha                    ; 48
  1626 1515 20 19 09		            jsr L0919              ; 20 19 09
  1627 1518 23			            .byte $23
  1628 1519 76 64		            ror ADRESS,X           ; 76 64
  1629 151B 94 3E		            sty FTYPE,X            ; 94 3E
  1630 151D 68			            pla                    ; 68
  1631 151E C9 10		            cmp #$10               ; C9 10
  1632 1520 90 0B		            bcc L152D              ; 90 0B
  1633 1522 20 19 09		            jsr L0919              ; 20 19 09
  1634 1525 21 7C		            and (HOLDCH,X)         ; 21 7C
  1635 1527 BB 13		            .byte $BB,$13
  1636 1529 AE A3 9A		            ldx L9AA3              ; AE A3 9A
  1637 152C BB			            .byte $BB
  1638 152D 60			L152D       rts                    ; 60
  1639 152E 20 19 09		            jsr L0919              ; 20 19 09
  1640 1531 2B			            .byte $2B
  1641 1532 81 9D		            sta (L009D,X)          ; 81 9D
  1642 1534 23			            .byte $23
  1643 1535 76 9A		            ror L009A,X            ; 76 9A
  1644 1537 CD 06 CE		            cmp LCE06              ; CD 06 CE
  1645 153A 32			            .byte $32
  1646 153B 2C 12 0D		            bit TDOVER            ; 2C 12 0D
  1647 153E 10 07		            bpl L1547              ; 10 07
  1648 1540 20 19 09		            jsr L0919              ; 20 19 09
  1649 1543 CD 0C CE		            cmp LCE0C              ; CD 0C CE
  1650 1546 32			            .byte $32
  1651 1547 A5 49		L1547       lda FMSZPG+6           ; A5 49
  1652 1549 8D 48 0E		            sta L0E48              ; 8D 48 0E
  1653 154C 29 20		            and #$20               ; 29 20
  1654 154E 09 08		            ora #$08               ; 09 08
  1655 1550 8D 21 0E		            sta L0E1F+2            ; 8D 21 0E
  1656 1553 60			            rts                    ; 60
  1657 1554 2C 53 0E		L1554       bit L0E52+1            ; 2C 53 0E
  1658 1557 30 6B		            bmi L15C3+1            ; 30 6B
  1659 1559 A9 16		            lda #$16               ; A9 16
  1660 155B 85 49		            sta FMSZPG+6           ; 85 49
  1661 155D 20 19 09		            jsr L0919              ; 20 19 09
  1662 1560 16 00		            asl L0000,X            ; 16 00
  1663 1562 AB			            .byte $AB
  1664 1563 81 08		            sta (WARMST,X)         ; 81 08
  1665 1565 8E 84 12		            stx L1283+1            ; 8E 84 12
  1666 1568 A5 2B		            lda ICAX2Z             ; A5 2B
  1667 156A 8D BE 11		            sta L11BE              ; 8D BE 11
  1668 156D 10 16		            bpl L1583+2            ; 10 16
  1669 156F 20 DA 14		            jsr L14DA              ; 20 DA 14
  1670 1572 2A			            rol                    ; 2A
  1671 1573 8C C5 0D		            sty L0DC5              ; 8C C5 0D
  1672 1576 20 19 09		            jsr L0919              ; 20 19 09
  1673 1579 28			            plp                    ; 28
  1674 157A 00 13		            .byte $00,$13
  1675 157C 28			            plp                    ; 28
  1676 157D D9 1F 2B		            cmp L2B1F,Y            ; D9 1F 2B
  1677 1580 3C 27		            .byte $3C,$27
  1678 1582 A8			            tay                    ; A8
  1679 1583 9D 33 38		L1583       sta L3833,X            ; 9D 33 38
  1680 1586 6E 53 0E		            ror L0E52+1            ; 6E 53 0E
  1681 1589 60			            rts                    ; 60
  1682 158A A9 28		            lda #$28               ; A9 28
  1683 158C A2 09		            ldx #$09               ; A2 09
  1684 158E D0 10		            bne L15A0              ; D0 10
  1685 1590 A5 2A		            lda ICAX1Z             ; A5 2A
  1686 1592 29 F0		            and #$F0               ; 29 F0
  1687 1594 09 04		            ora #$04               ; 09 04
  1688 1596 2C A5 2A		            bit L2AA5              ; 2C A5 2A
  1689 1599 29 3F		            and #$3F               ; 29 3F
  1690 159B 2C A9 14		L159B       bit L14A9              ; 2C A9 14
  1691 159E A2 29		L159E       ldx #$29               ; A2 29
  1692 15A0 8E 84 16		L15A0       stx L1684              ; 8E 84 16
  1693 15A3 C9 06		            cmp #$06               ; C9 06
  1694 15A5 F0 AD		            beq L1554              ; F0 AD
  1695 15A7 C9 20		            cmp #$20               ; C9 20
  1696 15A9 90 02		            bcc L15AD              ; 90 02
  1697 15AB 29 EF		            and #$EF               ; 29 EF
  1698 15AD 85 49		L15AD       sta FMSZPG+6           ; 85 49
  1699 15AF 29 0F		            and #$0F               ; 29 0F
  1700 15B1 4A			            lsr                    ; 4A
  1701 15B2 90 04		            bcc L15B8              ; 90 04
  1702 15B4 C9 04		            cmp #$04               ; C9 04
  1703 15B6 D0 03		            bne L15BB              ; D0 03
  1704 15B8 4A			L15B8       lsr                    ; 4A
  1705 15B9 90 45		L15B9       bcc L15FF+1            ; 90 45
  1706 15BB A0 A8		L15BB       ldy #$A8               ; A0 A8
  1707 15BD 2C A0 A3		L15BD       bit LA3A0              ; 2C A0 A3
  1708 15C0 2C A0 A9		L15C0       bit LA9A0              ; 2C A0 A9
  1709 15C3 2C A0 A1		L15C3       bit LA1A0              ; 2C A0 A1
  1710 15C6 4C C2 10		            jmp L10C2              ; 4C C2 10
  1711 15C9 A2 0A		L15C9       ldx #$0A               ; A2 0A
  1712 15CB BD 0B 0E		L15CB       lda L0E0A+1,X          ; BD 0B 0E
  1713 15CE C9 3F		            cmp #$3F               ; C9 3F
  1714 15D0 F0 EC		            beq L15BD+1            ; F0 EC
  1715 15D2 CA			            dex                    ; CA
  1716 15D3 10 F6		            bpl L15CB              ; 10 F6
  1717 15D5 6C 06 07		            jmp (GETTDV)            ; 6C 06 07
  1718 15D8 A9 00		L15D8       lda #$00               ; A9 00
  1719 15DA 10 46		            bpl L1622              ; 10 46
  1720 15DC 20 19 09		            jsr L0919              ; 20 19 09
  1721 15DF 2B			            .byte $2B
  1722 15E0 81 8C		            sta (L008C,X)          ; 81 8C
  1723 15E2 2B			            .byte $2B
  1724 15E3 6A			            ror                    ; 6A
  1725 15E4 81 22		            sta (ICCOMZ,X)         ; 81 22
  1726 15E6 CC B9 15		            cpy L15B9              ; CC B9 15
  1727 15E9 0C			            .byte $0C
  1728 15EA 9D C5 D0		            sta LD0C5,X            ; 9D C5 D0
  1729 15ED 34			            .byte $34
  1730 15EE 20 19 09		            jsr L0919              ; 20 19 09
  1731 15F1 2B			            .byte $2B
  1732 15F2 8C 81 22		            sty L2281              ; 8C 81 22
  1733 15F5 98			            tya                    ; 98
  1734 15F6 B9 15 0C		            lda L0C15,Y            ; B9 15 0C
  1735 15F9 9D C2 D0		            sta LD0C2,X            ; 9D C2 D0
  1736 15FC 25 4C		            and DSTAT              ; 25 4C
  1737 15FE B2			            .byte $B2
  1738 15FF 16 20		L15FF       asl ICHIDZ,X           ; 16 20
  1739 1601 AE 1A 08		            ldx L081A              ; AE 1A 08
  1740 1604 68			            pla                    ; 68
  1741 1605 6A			            ror                    ; 6A
  1742 1606 6A			            ror                    ; 6A
  1743 1607 6E D9 15		            ror L15D8+1            ; 6E D9 15
  1744 160A A5 49		            lda FMSZPG+6           ; A5 49
  1745 160C 29 10		            and #$10               ; 29 10
  1746 160E D0 6D		            bne L167D              ; D0 6D
  1747 1610 20 0C 15		            jsr L150C              ; 20 0C 15
  1748 1613 20 BF 1D		            jsr L1DBF              ; 20 BF 1D
  1749 1616 F0 67		            beq L167F              ; F0 67
  1750 1618 A5 49		L1618       lda FMSZPG+6           ; A5 49
  1751 161A C9 04		            cmp #$04               ; C9 04
  1752 161C F0 BA		            beq L15D8              ; F0 BA
  1753 161E 29 08		            and #$08               ; 29 08
  1754 1620 D0 0A		            bne L162C              ; D0 0A
  1755 1622 20 BE 10		L1622       jsr L10BE              ; 20 BE 10
  1756 1625 AA			            tax                    ; AA
  1757 1626 20 C9 15		L1626       jsr L15C9              ; 20 C9 15
  1758 1629 20 4D 1D		            jsr L1D4D              ; 20 4D 1D
  1759 162C 2C 4C 0E		L162C       bit L0E4B+1            ; 2C 4C 0E
  1760 162F 30 90		            bmi L15C0+1            ; 30 90
  1761 1631 20 19 09		            jsr L0919              ; 20 19 09
  1762 1634 15 C9		            ora L00C9,X            ; 15 C9
  1763 1636 15 2E		            ora ICAX5Z,X           ; 15 2E
  1764 1638 1B			            .byte $1B
  1765 1639 6C 22 5B		            jmp (L5B22)            ; 6C 22 5B
  1766 163C 98			            tya                    ; 98
  1767 163D 21 7B		            and (SWPFLG,X)         ; 21 7B
  1768 163F BE 13 9B		            ldx L9B13,Y            ; BE 13 9B
  1769 1642 22			            .byte $22
  1770 1643 C1 5D		            cmp (OLDCHR,X)         ; C1 5D
  1771 1645 22			            .byte $22
  1772 1646 76 C1		            ror L00C1,X            ; 76 C1
  1773 1648 13 9E 23 BB		            .byte $13,$9E,$23,$BB
  1774 164C 9A			            txs                    ; 9A
  1775 164D 13 9B 22		            .byte $13,$9B,$22
  1776 1650 5D C1 93		            eor L93C1,X            ; 5D C1 93
  1777 1653 9E			            .byte $9E
  1778 1654 A5 49		            lda FMSZPG+6           ; A5 49
  1779 1656 29 20		            and #$20               ; 29 20
  1780 1658 F0 1E		            beq L1678              ; F0 1E
  1781 165A F0 BC		L165A       beq L1618              ; F0 BC
  1782 165C 20 19 09		            jsr L0919              ; 20 19 09
  1783 165F 22			            .byte $22
  1784 1660 B9 5D 22		            lda L225D,Y            ; B9 5D 22
  1785 1663 98			            tya                    ; 98
  1786 1664 B9 15 0F		            lda L0F15,Y            ; B9 15 0F
  1787 1667 15 2E		            ora ICAX5Z,X           ; 15 2E
  1788 1669 21 7C		            and (HOLDCH,X)         ; 21 7C
  1789 166B 9A			            txs                    ; 9A
  1790 166C 22			            .byte $22
  1791 166D 5D 98 13		            eor L1398,X            ; 5D 98 13
  1792 1670 B1 22		            lda (ICCOMZ),Y         ; B1 22
  1793 1672 98			            tya                    ; 98
  1794 1673 B9 15 0C		            lda L0C15,Y            ; B9 15 0C
  1795 1676 93 9E		            .byte $93,$9E
  1796 1678 4C B2 16		L1678       jmp L16B2              ; 4C B2 16
  1797 167B 10 A9		L167B       bpl L1626              ; 10 A9
  1798 167D D0 3C		L167D       bne L16BA+1            ; D0 3C
  1799 167F A5 49		L167F       lda FMSZPG+6           ; A5 49
  1800 1681 4D 21 0E		            eor L0E1F+2            ; 4D 21 0E
  1801 1684 29 20		L1684       and #$20               ; 29 20
  1802 1686 F0 0E		            beq L1696              ; F0 0E
  1803 1688 A5 49		            lda FMSZPG+6           ; A5 49
  1804 168A 29 08		            and #$08               ; 29 08
  1805 168C F0 CC		            beq L165A              ; F0 CC
  1806 168E A0 97		            ldy #$97               ; A0 97
  1807 1690 2C A0 A4		L1690       bit LA4A0              ; 2C A0 A4
  1808 1693 4C C2 10		            jmp L10C2              ; 4C C2 10
  1809 1696 A5 49		L1696       lda FMSZPG+6           ; A5 49
  1810 1698 29 08		            and #$08               ; 29 08
  1811 169A F0 16		            beq L16B2              ; F0 16
  1812 169C AD 21 0E		            lda L0E1F+2            ; AD 21 0E
  1813 169F 29 21		            and #$21               ; 29 21
  1814 16A1 4A			            lsr                    ; 4A
  1815 16A2 D0 0E		            bne L16B2              ; D0 0E
  1816 16A4 B0 EB		            bcs L1690+1            ; B0 EB
  1817 16A6 A5 49		            lda FMSZPG+6           ; A5 49
  1818 16A8 C9 08		            cmp #$08               ; C9 08
  1819 16AA D0 06		            bne L16B2              ; D0 06
  1820 16AC A9 00		L16AC       lda #$00               ; A9 00
  1821 16AE 10 CB		            bpl L167B              ; 10 CB
  1822 16B0 E6 49		            inc FMSZPG+6           ; E6 49
  1823 16B2 20 19 09		L16B2       jsr L0919              ; 20 19 09
  1824 16B5 22			            .byte $22
  1825 16B6 B9 BF A5		            lda LA5BF,Y            ; B9 BF A5
  1826 16B9 98			            tya                    ; 98
  1827 16BA B9 A5 49		L16BA       lda L49A5,Y            ; B9 A5 49
  1828 16BD 20 11 15		            jsr L1511              ; 20 11 15
  1829 16C0 A5 49		            lda FMSZPG+6           ; A5 49
  1830 16C2 C9 10		            cmp #$10               ; C9 10
  1831 16C4 90 15		            bcc L16DB              ; 90 15
  1832 16C6 20 19 09		            jsr L0919              ; 20 19 09
  1833 16C9 22			            .byte $22
  1834 16CA B9 BF A2		            lda LA2BF,Y            ; B9 BF A2
  1835 16CD 76 C1		            ror L00C1,X            ; 76 C1
  1836 16CF A5 49		            lda FMSZPG+6           ; A5 49
  1837 16D1 29 07		            and #$07               ; 29 07
  1838 16D3 D0 06		            bne L16DB              ; D0 06
  1839 16D5 20 19 09		            jsr L0919              ; 20 19 09
  1840 16D8 A3			            .byte $A3
  1841 16D9 B6 BB		            ldx L00BB,Y            ; B6 BB
  1842 16DB A5 49		L16DB       lda FMSZPG+6           ; A5 49
  1843 16DD 4A			            lsr                    ; 4A
  1844 16DE 90 1D		            bcc L16FD              ; 90 1D
  1845 16E0 20 19 09		            jsr L0919              ; 20 19 09
  1846 16E3 A3 BB 64		            .byte $A3,$BB,$64
  1847 16E6 4C 3E 14		            jmp L143E              ; 4C 3E 14
  1848 16E9 A0 00		            ldy #$00               ; A0 00
  1849 16EB 2C A0 05		            bit L05A0              ; 2C A0 05
  1850 16EE B9 40 0E		L16EE       lda L0E3F+1,Y          ; B9 40 0E
  1851 16F1 9D 4C 03		            sta IOCB0+ICAX3,X      ; 9D 4C 03
  1852 16F4 C8			            iny                    ; C8
  1853 16F5 E8			            inx                    ; E8
  1854 16F6 8A			            txa                    ; 8A
  1855 16F7 29 0F		            and #$0F               ; 29 0F
  1856 16F9 C9 03		            cmp #$03               ; C9 03
  1857 16FB 90 F1		            bcc L16EE              ; 90 F1
  1858 16FD 60			L16FD       rts                    ; 60
  1859 16FE 8E 2C 1C		L16FE       stx L1C2B+1            ; 8E 2C 1C
  1860 1701 A9 FF		            lda #$FF               ; A9 FF
  1861 1703 9D 49 0F		            sta L0F49,X            ; 9D 49 0F
  1862 1706 8A			            txa                    ; 8A
  1863 1707 18			            clc                    ; 18
  1864 1708 69 17		            adc #$17               ; 69 17
  1865 170A 85 44		            sta FMSZPG+1           ; 85 44
  1866 170C A9 11		            lda #$11               ; A9 11
  1867 170E 85 43		            sta FMSZPG             ; 85 43
  1868 1710 60			            rts                    ; 60
  1869 				;
  1870 1711			            org $1A11
  1871 				;
  1872 1A11-1EE3> E0 08		L1A11       cpx #$08               ; E0 08
  1873 1A13 90 09		            bcc L1A1E              ; 90 09
  1874 1A15 2C 48 1C		            bit L1C47+1            ; 2C 48 1C
  1875 1A18 10 08		            bpl L1A22              ; 10 08
  1876 1A1A E0 0B		            cpx #$0B               ; E0 0B
  1877 1A1C B0 04		            bcs L1A22              ; B0 04
  1878 1A1E 9D 0B 0E		L1A1E       sta L0E0A+1,X          ; 9D 0B 0E
  1879 1A21 E8			            inx                    ; E8
  1880 1A22 60			L1A22       rts                    ; 60
  1881 1A23 A0 00		L1A23       ldy #$00               ; A0 00
  1882 1A25 8C EA 1A		            sty L1AE9+1            ; 8C EA 1A
  1883 1A28 EE 24 1A		            inc L1A23+1            ; EE 24 1A
  1884 1A2B A9 0E		            lda #$0E               ; A9 0E
  1885 1A2D 8D 48 1C		            sta L1C47+1            ; 8D 48 1C
  1886 1A30 A2 00		            ldx #$00               ; A2 00
  1887 1A32 F0 0A		            beq L1A3E              ; F0 0A
  1888 1A34 A9 3F		L1A34       lda #$3F               ; A9 3F
  1889 1A36 20 11 1A		            jsr L1A11              ; 20 11 1A
  1890 1A39 90 F9		            bcc L1A34              ; 90 F9
  1891 1A3B 20 11 1A		L1A3B       jsr L1A11              ; 20 11 1A
  1892 1A3E C8			L1A3E       iny                    ; C8
  1893 1A3F B1 24		            lda (ICBALZ),Y         ; B1 24
  1894 1A41 C9 2A		            cmp #$2A               ; C9 2A
  1895 1A43 F0 EF		            beq L1A34              ; F0 EF
  1896 1A45 C9 3F		            cmp #$3F               ; C9 3F
  1897 1A47 F0 F2		            beq L1A3B              ; F0 F2
  1898 1A49 C9 5F		            cmp #$5F               ; C9 5F
  1899 1A4B F0 EE		            beq L1A3B              ; F0 EE
  1900 1A4D C9 2E		            cmp #$2E               ; C9 2E
  1901 1A4F F0 14		            beq L1A65              ; F0 14
  1902 1A51 C9 30		            cmp #$30               ; C9 30
  1903 1A53 90 0C		            bcc L1A61              ; 90 0C
  1904 1A55 C9 3A		            cmp #$3A               ; C9 3A
  1905 1A57 90 E2		            bcc L1A3B              ; 90 E2
  1906 1A59 C9 41		            cmp #$41               ; C9 41
  1907 1A5B 90 04		            bcc L1A61              ; 90 04
  1908 1A5D C9 5B		            cmp #$5B               ; C9 5B
  1909 1A5F 90 DA		            bcc L1A3B              ; 90 DA
  1910 1A61 38			L1A61       sec                    ; 38
  1911 1A62 6E 48 1C		            ror L1C47+1            ; 6E 48 1C
  1912 1A65 A9 20		L1A65       lda #$20               ; A9 20
  1913 1A67 20 11 1A		            jsr L1A11              ; 20 11 1A
  1914 1A6A 90 F9		            bcc L1A65              ; 90 F9
  1915 1A6C 6E 48 1C		            ror L1C47+1            ; 6E 48 1C
  1916 1A6F 90 CD		            bcc L1A3E              ; 90 CD
  1917 1A71 B1 24		            lda (ICBALZ),Y         ; B1 24
  1918 1A73 C9 2F		            cmp #$2F               ; C9 2F
  1919 1A75 D0 0D		            bne L1A84              ; D0 0D
  1920 1A77 C8			            iny                    ; C8
  1921 1A78 B1 24		            lda (ICBALZ),Y         ; B1 24
  1922 1A7A 88			            dey                    ; 88
  1923 1A7B C9 41		            cmp #$41               ; C9 41
  1924 1A7D D0 05		            bne L1A84              ; D0 05
  1925 1A7F 6E AD 16		            ror L16AC+1            ; 6E AD 16
  1926 1A82 C8			            iny                    ; C8
  1927 1A83 C8			            iny                    ; C8
  1928 1A84 CC 24 1A		L1A84       cpy L1A23+1            ; CC 24 1A
  1929 1A87 8C 24 1A		L1A87       sty L1A23+1            ; 8C 24 1A
  1930 1A8A 08			            php                    ; 08
  1931 1A8B F0 01		            beq L1A8E              ; F0 01
  1932 1A8D 18			            clc                    ; 18
  1933 1A8E 6E FE 1A		L1A8E       ror L1AFD+1            ; 6E FE 1A
  1934 1A91 B1 24		            lda (ICBALZ),Y         ; B1 24
  1935 1A93 28			            plp                    ; 28
  1936 1A94 60			            rts                    ; 60
  1937 1A95 20 19 09		            jsr L0919              ; 20 19 09
  1938 1A98 1A 9F 1A FA		            .byte $1A,$9F,$1A,$FA
  1939 1A9C A2 B9		            ldx #$B9               ; A2 B9
  1940 1A9E E3			            .byte $E3
  1941 1A9F A0 02		            ldy #$02               ; A0 02
  1942 1AA1 B1 24		L1AA1       lda (ICBALZ),Y         ; B1 24
  1943 1AA3 C9 3A		            cmp #$3A               ; C9 3A
  1944 1AA5 F0 E0		            beq L1A87              ; F0 E0
  1945 1AA7 88			            dey                    ; 88
  1946 1AA8 D0 F7		            bne L1AA1              ; D0 F7
  1947 1AAA 20 BE 10		L1AAA       jsr L10BE              ; 20 BE 10
  1948 1AAD 96 20		            stx ICHIDZ,Y           ; 96 20
  1949 1AAF 9F 1A		            .byte $9F,$1A
  1950 1AB1 8C E8 1A		            sty L1AE7+1            ; 8C E8 1A
  1951 1AB4 4E AD 16		L1AB4       lsr L16AC+1            ; 4E AD 16
  1952 1AB7 20 19 09		            jsr L0919              ; 20 19 09
  1953 1ABA 22 E3		            .byte $22,$E3
  1954 1ABC B9 9A 23		            lda L239A,Y            ; B9 9A 23
  1955 1ABF D0 33		            bne L1AF4              ; D0 33
  1956 1AC1 C9 3E		            cmp #$3E               ; C9 3E
  1957 1AC3 D0 1B		            bne L1AE0              ; D0 1B
  1958 1AC5 20 19 09		            jsr L0919              ; 20 19 09
  1959 1AC8 A2 CC		            ldx #$CC               ; A2 CC
  1960 1ACA B9 F0 22		            lda L22F0,Y            ; B9 F0 22
  1961 1ACD 20 0C 15		L1ACD       jsr L150C              ; 20 0C 15
  1962 1AD0 20 0C 1B		            jsr L1B0C              ; 20 0C 1B
  1963 1AD3 AD 43 0E		            lda L0E42+1            ; AD 43 0E
  1964 1AD6 0D 44 0E		            ora L0E42+2            ; 0D 44 0E
  1965 1AD9 F0 CF		            beq L1AAA              ; F0 CF
  1966 1ADB 20 23 1A		            jsr L1A23              ; 20 23 1A
  1967 1ADE D0 14		            bne L1AF4              ; D0 14
  1968 1AE0 C9 3C		L1AE0       cmp #$3C               ; C9 3C
  1969 1AE2 F0 E9		            beq L1ACD              ; F0 E9
  1970 1AE4 4E AD 16		L1AE4       lsr L16AC+1            ; 4E AD 16
  1971 1AE7 A0 00		L1AE7       ldy #$00               ; A0 00
  1972 1AE9 C0 00		L1AE9       cpy #$00               ; C0 00
  1973 1AEB 60			            rts                    ; 60
  1974 1AEC 20 01 1B		L1AEC       jsr L1B01              ; 20 01 1B
  1975 1AEF 20 23 1A		            jsr L1A23              ; 20 23 1A
  1976 1AF2 F0 F0		            beq L1AE4              ; F0 F0
  1977 1AF4 C9 3E		L1AF4       cmp #$3E               ; C9 3E
  1978 1AF6 F0 F4		            beq L1AEC              ; F0 F4
  1979 1AF8 D0 ED		            bne L1AE7              ; D0 ED
  1980 1AFA 20 B4 1A		            jsr L1AB4              ; 20 B4 1A
  1981 1AFD A9 00		L1AFD       lda #$00               ; A9 00
  1982 1AFF 30 11		            bmi L1B11+1            ; 30 11
  1983 1B01 4E AD 16		L1B01       lsr L16AC+1            ; 4E AD 16
  1984 1B04 20 0C 15		            jsr L150C              ; 20 0C 15
  1985 1B07 20 C5 1D		            jsr L1DC4+1            ; 20 C5 1D
  1986 1B0A 30 9E		            bmi L1AAA              ; 30 9E
  1987 1B0C 20 19 09		L1B0C       jsr L0919              ; 20 19 09
  1988 1B0F A2 98		            ldx #$98               ; A2 98
  1989 1B11 B9 60 BD		L1B11       lda LBD60,Y            ; B9 60 BD
  1990 1B14 40			            rti                    ; 40
  1991 1B15 0F			            .byte $0F
  1992 1B16 10 FA		            bpl L1B11+1            ; 10 FA
  1993 1B18 29 7F		            and #$7F               ; 29 7F
  1994 1B1A 9D 40 0F		            sta L0F40,X            ; 9D 40 0F
  1995 1B1D A8			            tay                    ; A8
  1996 1B1E 20 FE 16		            jsr L16FE              ; 20 FE 16
  1997 1B21 BD 46 0F		            lda L0F46,X            ; BD 46 0F
  1998 1B24 48			            pha                    ; 48
  1999 1B25 BD 43 0F		            lda L0F43,X            ; BD 43 0F
  2000 1B28 AA			            tax                    ; AA
  2001 1B29 68			            pla                    ; 68
  2002 1B2A 38			            sec                    ; 38
  2003 1B2B 8C 01 03		L1B2B       sty DUNIT              ; 8C 01 03
  2004 1B2E 8E 0A 03		            stx DAUX1              ; 8E 0A 03
  2005 1B31 8D 0B 03		            sta DAUX2              ; 8D 0B 03
  2006 1B34 CA			            dex                    ; CA
  2007 1B35 D0 04		            bne L1B3B              ; D0 04
  2008 1B37 AA			            tax                    ; AA
  2009 1B38 D0 01		            bne L1B3B              ; D0 01
  2010 1B3A A8			            tay                    ; A8
  2011 1B3B A2 52		L1B3B       ldx #$52               ; A2 52
  2012 1B3D A9 40		            lda #$40               ; A9 40
  2013 1B3F 90 04		            bcc L1B45              ; 90 04
  2014 1B41 AE F7 0C		            ldx WRTCMD              ; AE F7 0C
  2015 1B44 0A			            asl                    ; 0A
  2016 1B45 8E 02 03		L1B45       stx DCOMND             ; 8E 02 03
  2017 1B48 8D 03 03		            sta DSTATS             ; 8D 03 03
  2018 1B4B B9 E9 0D		            lda L0DE9,Y            ; B9 E9 0D
  2019 1B4E 8D 08 03		            sta DBYTLO             ; 8D 08 03
  2020 1B51 0A			            asl                    ; 0A
  2021 1B52 2A			            rol                    ; 2A
  2022 1B53 49 01		            eor #$01               ; 49 01
  2023 1B55 8D 09 03		            sta DBYTHI             ; 8D 09 03
  2024 1B58 20 19 09		            jsr L0919              ; 20 19 09
  2025 1B5B 5B			            .byte $5B
  2026 1B5C 70 23		            bvs L1B7F+2            ; 70 23
  2027 1B5E 06 47		            asl FMSZPG+4           ; 06 47
  2028 1B60 AE 23 00		            ldx.w ICSTAZ           ; AE 23 00
  2029 1B63 40			            rti                    ; 40
  2030 1B64 43 43 04		            .byte $43,$43,$04
  2031 1B67 8C EE 30		            sty L30EE              ; 8C EE 30
  2032 1B6A 77			            .byte $77
  2033 1B6B 60			L1B6B       rts                    ; 60
  2034 1B6C AD 48 0E		L1B6C       lda L0E48              ; AD 48 0E
  2035 1B6F C9 10		            cmp #$10               ; C9 10
  2036 1B71 B0 03		            bcs L1B75+1            ; B0 03
  2037 1B73 A0 00		            ldy #$00               ; A0 00
  2038 1B75 2C A0 02		L1B75       bit DMASK              ; 2C A0 02
  2039 1B78 98			            tya                    ; 98
  2040 1B79 48			            pha                    ; 48
  2041 1B7A A2 FE		            ldx #$FE               ; A2 FE
  2042 1B7C B9 5F 0E		L1B7C       lda L0E5F,Y            ; B9 5F 0E
  2043 1B7F 9D E7 0C		L1B7F       sta DECOUT+1,X          ; 9D E7 0C
  2044 1B82 C8			            iny                    ; C8
  2045 1B83 E8			            inx                    ; E8
  2046 1B84 D0 F6		            bne L1B7C              ; D0 F6
  2047 1B86 20 AE 1B		            jsr L1BAE              ; 20 AE 1B
  2048 1B89 20 A3 1C		            jsr L1CA2+1            ; 20 A3 1C
  2049 1B8C 20 69 08		            jsr L0869              ; 20 69 08
  2050 1B8F E5 0D		            sbc DOSINI+1           ; E5 0D
  2051 1B91 20 8A 1D		L1B91       jsr L1D8A              ; 20 8A 1D
  2052 1B94 AA			            tax                    ; AA
  2053 1B95 31 43		            and (FMSZPG),Y         ; 31 43
  2054 1B97 D0 05		            bne L1B9E              ; D0 05
  2055 1B99 20 AE 1B		            jsr L1BAE              ; 20 AE 1B
  2056 1B9C 90 F3		            bcc L1B91              ; 90 F3
  2057 1B9E 8A			L1B9E       txa                    ; 8A
  2058 1B9F 51 43		            eor (FMSZPG),Y         ; 51 43
  2059 1BA1 91 43		            sta (FMSZPG),Y         ; 91 43
  2060 1BA3 20 2B 1C		            jsr L1C2B              ; 20 2B 1C
  2061 1BA6 20 69 08		            jsr L0869              ; 20 69 08
  2062 1BA9 5A			            .byte $5A
  2063 1BAA 0E 18 90		            asl L9018              ; 0E 18 90
  2064 1BAD 1B			            .byte $1B
  2065 1BAE 20 63 08		L1BAE       jsr L0862+1            ; 20 63 08
  2066 1BB1 E5 0D		            sbc DOSINI+1           ; E5 0D
  2067 1BB3 AD E5 0D		            lda L0DE5              ; AD E5 0D
  2068 1BB6 CD 58 0E		            cmp L0E58              ; CD 58 0E
  2069 1BB9 AD E6 0D		            lda L0DE6              ; AD E6 0D
  2070 1BBC ED 59 0E		            sbc L0E58+1            ; ED 59 0E
  2071 1BBF 90 AA		            bcc L1B6B              ; 90 AA
  2072 1BC1 20 69 08		            jsr L0869              ; 20 69 08
  2073 1BC4 E5 0D		            sbc DOSINI+1           ; E5 0D
  2074 1BC6 68			            pla                    ; 68
  2075 1BC7 68			            pla                    ; 68
  2076 1BC8 38			            sec                    ; 38
  2077 1BC9 68			            pla                    ; 68
  2078 1BCA A8			            tay                    ; A8
  2079 1BCB A2 FE		            ldx #$FE               ; A2 FE
  2080 1BCD BD E7 0C		L1BCD       lda DECOUT+1,X          ; BD E7 0C
  2081 1BD0 99 5F 0E		            sta L0E5F,Y            ; 99 5F 0E
  2082 1BD3 C8			            iny                    ; C8
  2083 1BD4 E8			            inx                    ; E8
  2084 1BD5 D0 F6		            bne L1BCD              ; D0 F6
  2085 1BD7 AE E5 0D		            ldx L0DE5              ; AE E5 0D
  2086 1BDA 90 0E		            bcc L1BEA              ; 90 0E
  2087 1BDC 88			            dey                    ; 88
  2088 1BDD 88			            dey                    ; 88
  2089 1BDE F0 96		            beq L1B75+1            ; F0 96
  2090 1BE0 A0 A2		            ldy #$A2               ; A0 A2
  2091 1BE2 4C C2 10		            jmp L10C2              ; 4C C2 10
  2092 1BE5 A9 00		L1BE5       lda #$00               ; A9 00
  2093 1BE7 A2 01		            ldx #$01               ; A2 01
  2094 1BE9 38			L1BE9       sec                    ; 38
  2095 1BEA 8E 69 1C		L1BEA       stx L1C68+1            ; 8E 69 1C
  2096 1BED 8D 6E 1C		            sta L1C6D+1            ; 8D 6E 1C
  2097 1BF0 08			            php                    ; 08
  2098 1BF1 A2 02		            ldx #$02               ; A2 02
  2099 1BF3 BD 49 0F		L1BF3       lda L0F49,X            ; BD 49 0F
  2100 1BF6 F0 03		            beq L1BFB              ; F0 03
  2101 1BF8 DE 49 0F		            dec L0F49,X            ; DE 49 0F
  2102 1BFB CA			L1BFB       dex                    ; CA
  2103 1BFC 10 F5		            bpl L1BF3              ; 10 F5
  2104 1BFE A2 02		            ldx #$02               ; A2 02
  2105 1C00 20 0C 11		L1C00       jsr L110C              ; 20 0C 11
  2106 1C03 D0 30		            bne L1C35              ; D0 30
  2107 1C05 BD 43 0F		            lda L0F43,X            ; BD 43 0F
  2108 1C08 A8			            tay                    ; A8
  2109 1C09 CD 69 1C		            cmp L1C68+1            ; CD 69 1C
  2110 1C0C D0 27		            bne L1C35              ; D0 27
  2111 1C0E BD 46 0F		            lda L0F46,X            ; BD 46 0F
  2112 1C11 CD 6E 1C		            cmp L1C6D+1            ; CD 6E 1C
  2113 1C14 D0 1F		            bne L1C35              ; D0 1F
  2114 1C16 88			            dey                    ; 88
  2115 1C17 D0 03		            bne L1C1C              ; D0 03
  2116 1C19 A8			            tay                    ; A8
  2117 1C1A F0 42		            beq L1C5E              ; F0 42
  2118 1C1C 20 FE 16		L1C1C       jsr L16FE              ; 20 FE 16
  2119 1C1F 28			            plp                    ; 28
  2120 1C20 B0 12		            bcs L1C34              ; B0 12
  2121 1C22 A4 45		L1C22       ldy FMSZPG+2           ; A4 45
  2122 1C24 A9 00		            lda #$00               ; A9 00
  2123 1C26 88			L1C26       dey                    ; 88
  2124 1C27 91 43		            sta (FMSZPG),Y         ; 91 43
  2125 1C29 D0 FB		            bne L1C26              ; D0 FB
  2126 1C2B A2 00		L1C2B       ldx #$00               ; A2 00
  2127 1C2D 1E 40 0F		            asl L0F40,X            ; 1E 40 0F
  2128 1C30 38			            sec                    ; 38
  2129 1C31 7E 40 0F		            ror L0F40,X            ; 7E 40 0F
  2130 1C34 60			L1C34       rts                    ; 60
  2131 1C35 CA			L1C35       dex                    ; CA
  2132 1C36 10 C8		            bpl L1C00              ; 10 C8
  2133 1C38 8E 48 1C		            stx L1C47+1            ; 8E 48 1C
  2134 1C3B E8			            inx                    ; E8
  2135 1C3C 8E 57 1C		            stx L1C56+1            ; 8E 57 1C
  2136 1C3F BD 40 0F		L1C3F       lda L0F40,X            ; BD 40 0F
  2137 1C42 F0 03		L1C42       beq L1C47              ; F0 03
  2138 1C44 BD 49 0F		            lda L0F49,X            ; BD 49 0F
  2139 1C47 C9 FF		L1C47       cmp #$FF               ; C9 FF
  2140 1C49 B0 06		            bcs L1C51              ; B0 06
  2141 1C4B 8D 48 1C		            sta L1C47+1            ; 8D 48 1C
  2142 1C4E 8E 57 1C		            stx L1C56+1            ; 8E 57 1C
  2143 1C51 E8			L1C51       inx                    ; E8
  2144 1C52 E0 03		            cpx #$03               ; E0 03
  2145 1C54 90 E9		            bcc L1C3F              ; 90 E9
  2146 1C56 A2 00		L1C56       ldx #$00               ; A2 00
  2147 1C58 20 13 1B		            jsr L1B11+2            ; 20 13 1B
  2148 1C5B AE 57 1C		            ldx L1C56+1            ; AE 57 1C
  2149 1C5E 20 FE 16		L1C5E       jsr L16FE              ; 20 FE 16
  2150 1C61 AD 39 0E		            lda L0E38+1            ; AD 39 0E
  2151 1C64 9D 40 0F		            sta L0F40,X            ; 9D 40 0F
  2152 1C67 A8			            tay                    ; A8
  2153 1C68 A9 00		L1C68       lda #$00               ; A9 00
  2154 1C6A 9D 43 0F		            sta L0F43,X            ; 9D 43 0F
  2155 1C6D A9 00		L1C6D       lda #$00               ; A9 00
  2156 1C6F 9D 46 0F		            sta L0F46,X            ; 9D 46 0F
  2157 1C72 28			            plp                    ; 28
  2158 1C73 90 AD		            bcc L1C22              ; 90 AD
  2159 1C75 AE 69 1C		            ldx L1C68+1            ; AE 69 1C
  2160 1C78 18			            clc                    ; 18
  2161 1C79 4C 2B 1B		            jmp L1B2B              ; 4C 2B 1B
  2162 1C7C 20 19 09		L1C7C       jsr L0919              ; 20 19 09
  2163 1C7F 22			            .byte $22
  2164 1C80 B0 5B		            bcs L1CDC+1            ; B0 5B
  2165 1C82 9D 8A 11		            sta L118A,X            ; 9D 8A 11
  2166 1C85 43			            .byte $43
  2167 1C86 91 43		            sta (FMSZPG),Y         ; 91 43
  2168 1C88 20 19 09		            jsr L0919              ; 20 19 09
  2169 1C8B 1C 2B 22		            .byte $1C,$2B,$22
  2170 1C8E 79 D7 A2		            adc LA2D7,Y            ; 79 D7 A2
  2171 1C91 CE D5 A0		            dec LA0D5              ; CE D5 A0
  2172 1C94 04			            .byte $04
  2173 1C95 4E 60 0E		L1C95       lsr L0E5F+1            ; 4E 60 0E
  2174 1C98 6E 5F 0E		            ror L0E5F              ; 6E 5F 0E
  2175 1C9B 88			            dey                    ; 88
  2176 1C9C D0 F7		            bne L1C95              ; D0 F7
  2177 1C9E 20 63 08		            jsr L0862+1            ; 20 63 08
  2178 1CA1 5A			            .byte $5A
  2179 1CA2 0E AE 39		L1CA2       asl L39AE              ; 0E AE 39
  2180 1CA5 0E 38 7E		            asl L7E38              ; 0E 38 7E
  2181 1CA8 4C 0E 60		L1CA8       jmp L600E              ; 4C 0E 60
  2182 1CAB A2 0A		            ldx #$0A               ; A2 0A
  2183 1CAD BD 16 0E		L1CAD       lda L0E16,X            ; BD 16 0E
  2184 1CB0 C9 3F		            cmp #$3F               ; C9 3F
  2185 1CB2 F0 03		            beq L1CB7              ; F0 03
  2186 1CB4 9D 27 0E		            sta L0E25+2,X          ; 9D 27 0E
  2187 1CB7 CA			L1CB7       dex                    ; CA
  2188 1CB8 10 F3		            bpl L1CAD              ; 10 F3
  2189 1CBA 60			            rts                    ; 60
  2190 1CBB 38			            sec                    ; 38
  2191 1CBC 24 18		            bit DSKFMS             ; 24 18
  2192 1CBE 08			            php                    ; 08
  2193 1CBF 4E 21 0E		            lsr L0E1F+2            ; 4E 21 0E
  2194 1CC2 28			            plp                    ; 28
  2195 1CC3 2E 21 0E		            rol L0E1F+2            ; 2E 21 0E
  2196 1CC6 60			            rts                    ; 60
  2197 1CC7 AB 34		L1CC7       .byte $AB,$34
  2198 1CC9 C6 BB		            dec L00BB              ; C6 BB
  2199 1CCB BD 1C 1D		L1CCB       lda L1D1C,X            ; BD 1C 1D
  2200 1CCE 1C 1C 1C		            .byte $1C,$1C,$1C
  2201 1CD1 98			            tya                    ; 98
  2202 1CD2 29 07		            and #$07               ; 29 07
  2203 1CD4 48			            pha                    ; 48
  2204 1CD5 A8			            tay                    ; A8
  2205 1CD6 B9 C7 1C		            lda L1CC7,Y            ; B9 C7 1C
  2206 1CD9 8D 02 1D		            sta L1D01+1            ; 8D 02 1D
  2207 1CDC B9 CC 1C		L1CDC       lda L1CCB+1,Y          ; B9 CC 1C
  2208 1CDF 8D 03 1D		            sta L1D01+2            ; 8D 03 1D
  2209 1CE2 B9 FE 0D		            lda L0DFE,Y            ; B9 FE 0D
  2210 1CE5 8D 13 1D		            sta L1D12+1            ; 8D 13 1D
  2211 1CE8 20 9C 15		            jsr L159B+1            ; 20 9C 15
  2212 1CEB 68			            pla                    ; 68
  2213 1CEC D0 0E		            bne L1CFB+1            ; D0 0E
  2214 1CEE 20 19 09		            jsr L0919              ; 20 19 09
  2215 1CF1 2B			            .byte $2B
  2216 1CF2 81 97		            sta (L0097,X)          ; 81 97
  2217 1CF4 1A 23 2B		            .byte $1A,$23,$2B
  2218 1CF7 81 8C		            sta (L008C,X)          ; 81 8C
  2219 1CF9 AB 97		            .byte $AB,$97
  2220 1CFB 81 20		L1CFB       sta (ICHIDZ,X)         ; 81 20
  2221 1CFD 0D 1D D0		            ora GRACTL             ; 0D 1D D0
  2222 1D00 3C			            .byte $3C
  2223 1D01 20 AA 1C		L1D01       jsr L1CA8+2            ; 20 AA 1C
  2224 1D04 20 9B 13		            jsr L1399+2            ; 20 9B 13
  2225 1D07 20 0D 1D		            jsr L1D0D              ; 20 0D 1D
  2226 1D0A F0 F5		            beq L1D01              ; F0 F5
  2227 1D0C 60			            rts                    ; 60
  2228 1D0D 20 BF 1D		L1D0D       jsr L1DBF              ; 20 BF 1D
  2229 1D10 D0 07		            bne L1D19              ; D0 07
  2230 1D12 A9 00		L1D12       lda #$00               ; A9 00
  2231 1D14 2D 21 0E		            and L0E1F+2            ; 2D 21 0E
  2232 1D17 D0 F4		            bne L1D0D              ; D0 F4
  2233 1D19 60			L1D19       rts                    ; 60
  2234 1D1A A9 24		            lda #$24               ; A9 24
  2235 1D1C 20 9E 15		L1D1C       jsr L159E              ; 20 9E 15
  2236 1D1F A2 0A		            ldx #$0A               ; A2 0A
  2237 1D21 A9 3F		            lda #$3F               ; A9 3F
  2238 1D23 9D 0B 0E		L1D23       sta L0E0A+1,X          ; 9D 0B 0E
  2239 1D26 CA			            dex                    ; CA
  2240 1D27 10 FA		            bpl L1D23              ; 10 FA
  2241 1D29 20 BF 1D		            jsr L1DBF              ; 20 BF 1D
  2242 1D2C F0 12		            beq L1D3F+1            ; F0 12
  2243 1D2E 20 9C 15		            jsr L159B+1            ; 20 9C 15
  2244 1D31 20 C5 1D		            jsr L1DC4+1            ; 20 C5 1D
  2245 1D34 AD 21 0E		            lda L0E1F+2            ; AD 21 0E
  2246 1D37 4A			            lsr                    ; 4A
  2247 1D38 90 0B		            bcc L1D45              ; 90 0B
  2248 1D3A A0 A4		            ldy #$A4               ; A0 A4
  2249 1D3C 2C A0 AA		            bit LAAA0              ; 2C A0 AA
  2250 1D3F 2C A0 A7		L1D3F       bit LA7A0              ; 2C A0 A7
  2251 1D42 4C C2 10		            jmp L10C2              ; 4C C2 10
  2252 1D45 A9 10		L1D45       lda #$10               ; A9 10
  2253 1D47 8D 21 0E		            sta L0E1F+2            ; 8D 21 0E
  2254 1D4A 20 9B 13		            jsr L1399+2            ; 20 9B 13
  2255 1D4D 20 19 09		L1D4D       jsr L0919              ; 20 19 09
  2256 1D50 22			            .byte $22
  2257 1D51 B9 BF 22		            lda L22BF,Y            ; B9 BF 22
  2258 1D54 98			            tya                    ; 98
  2259 1D55 B9 15 0F		            lda L0F15,Y            ; B9 15 0F
  2260 1D58 A1 79		            lda (KEYDEF,X)         ; A1 79
  2261 1D5A B5 20		L1D5A       lda ICHIDZ,X           ; B5 20
  2262 1D5C F6 12		            inc RTCLOK,X           ; F6 12
  2263 1D5E F0 03		            beq L1D63              ; F0 03
  2264 1D60 20 7C 1C		            jsr L1C7C              ; 20 7C 1C
  2265 1D63 A4 45		L1D63       ldy FMSZPG+2           ; A4 45
  2266 1D65 88			            dey                    ; 88
  2267 1D66 88			            dey                    ; 88
  2268 1D67 CC 3F 0E		            cpy L0E3F              ; CC 3F 0E
  2269 1D6A D0 EF		            bne L1D5A+1            ; D0 EF
  2270 1D6C 20 19 09		            jsr L0919              ; 20 19 09
  2271 1D6F 22 B3		            .byte $22,$B3
  2272 1D71 B0 1C		            bcs L1D8D+2            ; B0 1C
  2273 1D73 7C 8F		            .byte $7C,$8F
  2274 1D75 4C A0 00		            jmp L00A0              ; 4C A0 00
  2275 1D78 B1 43		            lda (FMSZPG),Y         ; B1 43
  2276 1D7A C8			            iny                    ; C8
  2277 1D7B 11 43		            ora (FMSZPG),Y         ; 11 43
  2278 1D7D D0 DC		            bne L1D5A+1            ; D0 DC
  2279 1D7F 20 19 09		            jsr L0919              ; 20 19 09
  2280 1D82 22 BF		            .byte $22,$BF
  2281 1D84 B9 95 0C		            lda L0C94+1,Y          ; B9 95 0C
  2282 1D87 4C 9E 13		            jmp L139D+1            ; 4C 9E 13
  2283 1D8A AD E5 0D		L1D8A       lda L0DE5              ; AD E5 0D
  2284 1D8D AE E6 0D		L1D8D       ldx L0DE6              ; AE E6 0D
  2285 1D90 A0 03		            ldy #$03               ; A0 03
  2286 1D92 48			L1D92       pha                    ; 48
  2287 1D93 8A			            txa                    ; 8A
  2288 1D94 4A			            lsr                    ; 4A
  2289 1D95 AA			            tax                    ; AA
  2290 1D96 68			            pla                    ; 68
  2291 1D97 6A			            ror                    ; 6A
  2292 1D98 88			            dey                    ; 88
  2293 1D99 D0 F7		            bne L1D92              ; D0 F7
  2294 1D9B 20 FD 14		            jsr L14FD              ; 20 FD 14
  2295 1D9E 8D BD 1D		            sta L1DBC+1            ; 8D BD 1D
  2296 1DA1 8A			            txa                    ; 8A
  2297 1DA2 18			            clc                    ; 18
  2298 1DA3 6D 5D 0E		            adc L0E5D              ; 6D 5D 0E
  2299 1DA6 AA			            tax                    ; AA
  2300 1DA7 A9 00		            lda #$00               ; A9 00
  2301 1DA9 6D 5E 0E		            adc L0E5D+1            ; 6D 5E 0E
  2302 1DAC 20 E9 1B		            jsr L1BE9              ; 20 E9 1B
  2303 1DAF AD E5 0D		            lda L0DE5              ; AD E5 0D
  2304 1DB2 29 07		            and #$07               ; 29 07
  2305 1DB4 A8			            tay                    ; A8
  2306 1DB5 A9 00		            lda #$00               ; A9 00
  2307 1DB7 38			            sec                    ; 38
  2308 1DB8 6A			L1DB8       ror                    ; 6A
  2309 1DB9 88			            dey                    ; 88
  2310 1DBA 10 FC		            bpl L1DB8              ; 10 FC
  2311 1DBC A0 00		L1DBC       ldy #$00               ; A0 00
  2312 1DBE 60			            rts                    ; 60
  2313 1DBF A9 80		L1DBF       lda #$80               ; A9 80
  2314 1DC1 2C A5 49		            bit L49A5              ; 2C A5 49
  2315 1DC4 2C A9 20		L1DC4       bit L20A9              ; 2C A9 20
  2316 1DC7 8D F4 1D		            sta L1DF3+1            ; 8D F4 1D
  2317 1DCA 20 19 09		            jsr L0919              ; 20 19 09
  2318 1DCD A2 68		            ldx #$68               ; A2 68
  2319 1DCF C1 20		L1DCF       cmp (ICHIDZ,X)         ; C1 20
  2320 1DD1 19 09 A2		            ora LA209,Y            ; 19 09 A2
  2321 1DD4 B6 5D		            ldx OLDCHR,Y           ; B6 5D
  2322 1DD6 2C 41 0E		            bit L0E41              ; 2C 41 0E
  2323 1DD9 30 3E		            bmi L1E19              ; 30 3E
  2324 1DDB 20 AE 13		            jsr L13AE              ; 20 AE 13
  2325 1DDE 30 39		            bmi L1E19              ; 30 39
  2326 1DE0 AD 21 0E		            lda L0E1F+2            ; AD 21 0E
  2327 1DE3 F0 34		            beq L1E19              ; F0 34
  2328 1DE5 29 08		            and #$08               ; 29 08
  2329 1DE7 D0 0A		            bne L1DF3              ; D0 0A
  2330 1DE9 2C 4C 0E		            bit L0E4B+1            ; 2C 4C 0E
  2331 1DEC 10 E2		            bpl L1DCF+1            ; 10 E2
  2332 1DEE 20 10 1E		            jsr L1E10              ; 20 10 1E
  2333 1DF1 F0 DD		            beq L1DCF+1            ; F0 DD
  2334 1DF3 A9 00		L1DF3       lda #$00               ; A9 00
  2335 1DF5 30 07		            bmi L1DFE              ; 30 07
  2336 1DF7 4D 21 0E		            eor L0E1F+2            ; 4D 21 0E
  2337 1DFA 29 20		            and #$20               ; 29 20
  2338 1DFC D0 D2		            bne L1DCF+1            ; D0 D2
  2339 1DFE A2 0B		L1DFE       ldx #$0B               ; A2 0B
  2340 1E00 BD 0A 0E		L1E00       lda L0E0A,X            ; BD 0A 0E
  2341 1E03 C9 3F		            cmp #$3F               ; C9 3F
  2342 1E05 F0 05		            beq L1E0C              ; F0 05
  2343 1E07 DD 26 0E		            cmp L0E25+1,X          ; DD 26 0E
  2344 1E0A D0 C4		            bne L1DCF+1            ; D0 C4
  2345 1E0C CA			L1E0C       dex                    ; CA
  2346 1E0D D0 F1		            bne L1E00              ; D0 F1
  2347 1E0F 8A			            txa                    ; 8A
  2348 1E10 48			L1E10       pha                    ; 48
  2349 1E11 20 19 09		            jsr L0919              ; 20 19 09
  2350 1E14 A2 5D		            ldx #$5D               ; A2 5D
  2351 1E16 C1 68		            cmp (SAVADR,X)         ; C1 68
  2352 1E18 60			            rts                    ; 60
  2353 1E19 A9 FF		L1E19       lda #$FF               ; A9 FF
  2354 1E1B 2C 4C 0E		            bit L0E4B+1            ; 2C 4C 0E
  2355 1E1E 30 F0		            bmi L1E10              ; 30 F0
  2356 1E20 AA			            tax                    ; AA
  2357 1E21 60			            rts                    ; 60
  2358 1E22 8E D6 1E		            stx L1ED5+1            ; 8E D6 1E
  2359 1E25 A5 2B		            lda ICAX2Z             ; A5 2B
  2360 1E27 8D DB 1E		            sta L1EDA+1            ; 8D DB 1E
  2361 1E2A A0 22		            ldy #$22               ; A0 22
  2362 1E2C 20 D1 1E		            jsr L1ED1              ; 20 D1 1E
  2363 1E2F 30 30		            bmi L1E61              ; 30 30
  2364 1E31 A5 20		            lda ICHIDZ             ; A5 20
  2365 1E33 9D 40 03		            sta IOCB0,X            ; 9D 40 03
  2366 1E36 20 7D 1E		            jsr L1E7C+1            ; 20 7D 1E
  2367 1E39 30 21		            bmi L1E5C              ; 30 21
  2368 1E3B A0 98		            ldy #$98               ; A0 98
  2369 1E3D 90 1D		            bcc L1E5C              ; 90 1D
  2370 1E3F 6E 4A 1E		            ror L1E49+1            ; 6E 4A 1E
  2371 1E42 20 7D 1E		L1E42       jsr L1E7C+1            ; 20 7D 1E
  2372 1E45 30 15		            bmi L1E5C              ; 30 15
  2373 1E47 B0 F9		            bcs L1E42              ; B0 F9
  2374 1E49 A9 00		L1E49       lda #$00               ; A9 00
  2375 1E4B 10 0A		            bpl L1E56+1            ; 10 0A
  2376 1E4D 4E 4A 1E		            lsr L1E49+1            ; 4E 4A 1E
  2377 1E50 20 19 09		            jsr L0919              ; 20 19 09
  2378 1E53 D1 86		            cmp (L0086),Y          ; D1 86
  2379 1E55 42			            .byte $42
  2380 1E56 E0 20		L1E56       cpx #$20               ; E0 20
  2381 1E58 92			            .byte $92
  2382 1E59 1E 10 E6		            asl LE610,X            ; 1E 10 E6
  2383 1E5C A9 FF		L1E5C       lda #$FF               ; A9 FF
  2384 1E5E 9D 40 03		            sta IOCB0,X            ; 9D 40 03
  2385 1E61 98			L1E61       tya                    ; 98
  2386 1E62 48			            pha                    ; 48
  2387 1E63 A0 2D		            ldy #$2D               ; A0 2D
  2388 1E65 20 D1 1E		            jsr L1ED1              ; 20 D1 1E
  2389 1E68 68			            pla                    ; 68
  2390 1E69 A8			            tay                    ; A8
  2391 1E6A C0 88		            cpy #$88               ; C0 88
  2392 1E6C D0 23		            bne L1E91              ; D0 23
  2393 1E6E 20 19 09		            jsr L0919              ; 20 19 09
  2394 1E71 42			            .byte $42
  2395 1E72 E0 4D		            cpx #$4D               ; E0 4D
  2396 1E74 13			            .byte $13
  2397 1E75 CD 13 4D		            cmp L4D13              ; CD 13 4D
  2398 1E78 36 A9		            rol L00A9,X            ; 36 A9
  2399 1E7A E0 D0		            cpx #$D0               ; E0 D0
  2400 1E7C 45 20		L1E7C       eor ICHIDZ             ; 45 20
  2401 1E7E 19 09 5E		            ora L5E09,Y            ; 19 09 5E
  2402 1E81 89 54 27 9E		            .byte $89,$54,$27,$9E
  2403 1E85 C9 30		            cmp #$30               ; C9 30
  2404 1E87 09 AD		            ora #$AD               ; 09 AD
  2405 1E89 86 11		            stx BRKKEY             ; 86 11
  2406 1E8B 2D 87 11		            and L1185+2            ; 2D 87 11
  2407 1E8E C9 FF		            cmp #$FF               ; C9 FF
  2408 1E90 98			            tya                    ; 98
  2409 1E91 60			L1E91       rts                    ; 60
  2410 1E92 20 19 09		            jsr L0919              ; 20 19 09
  2411 1E95 5D 9C 42		            eor L429C,X            ; 5D 9C 42
  2412 1E98 E2 5C		            .byte $E2,$5C
  2413 1E9A AE 54 27		            ldx L2754              ; AE 54 27
  2414 1E9D 9E			            .byte $9E
  2415 1E9E C9 30		            cmp #$30               ; C9 30
  2416 1EA0 F0 38		            beq L1EDA              ; F0 38
  2417 1EA2 A2 FE		            ldx #$FE               ; A2 FE
  2418 1EA4 BD 18 0D		L1EA4       lda SMEMLO+1,X         ; BD 18 0D
  2419 1EA7 FD 88 10		            sbc L1088,X            ; FD 88 10
  2420 1EAA 9D 53 0D		            sta L0D53,X            ; 9D 53 0D
  2421 1EAD E8			            inx                    ; E8
  2422 1EAE D0 F4		            bne L1EA4              ; D0 F4
  2423 1EB0 20 63 08		            jsr L0862+1            ; 20 63 08
  2424 1EB3 51 0E		            eor (APPMHI),Y         ; 51 0E
  2425 1EB5 20 19 09		            jsr L0919              ; 20 19 09
  2426 1EB8 51 86		            eor (L0086),Y          ; 51 86
  2427 1EBA 54 27 9E CF		            .byte $54,$27,$9E,$CF
  2428 1EBE 30 D1		            bmi L1E91              ; 30 D1
  2429 1EC0 A9 E2		            lda #$E2               ; A9 E2
  2430 1EC2 20 DA 1E		            jsr L1EDA              ; 20 DA 1E
  2431 1EC5 D8			            cld                    ; D8
  2432 1EC6 A0 01		            ldy #$01               ; A0 01
  2433 1EC8 60			            rts                    ; 60
  2434 1EC9 20 19 09		            jsr L0919              ; 20 19 09
  2435 1ECC A2 79		            ldx #$79               ; A2 79
  2436 1ECE C7			            .byte $C7
  2437 1ECF A0 2E		            ldy #$2E               ; A0 2E
  2438 1ED1 A2 00		L1ED1       ldx #$00               ; A2 00
  2439 1ED3 86 48		            stx FMSZPG+5           ; 86 48
  2440 1ED5 A2 00		L1ED5       ldx #$00               ; A2 00
  2441 1ED7 4C AC 0F		            jmp L0FAC              ; 4C AC 0F
  2442 1EDA A2 00		L1EDA       ldx #$00               ; A2 00
  2443 1EDC 30 B3		            bmi L1E91              ; 30 B3
  2444 1EDE 8D E2 1E		            sta L1EE1+1            ; 8D E2 1E
  2445 1EE1 6C E0 02		L1EE1       jmp (RUNAD)            ; 6C E0 02
  2446 1EE4			BW_DOS_end_addr
  2447 				;
  2448 1EE4			            org $02E0
  2449 				;
  2450 02E0-02E1> 0B 0E		            .word start
  2451 				;
  2452 				         
